---
triple:          'arm64-apple-darwin'
binary-path:     main
relocations:
  - { offsetInCU: 0x4C00, offset: 0x4C00, size: 0x8, addend: 0x0, symName: __ZNSt3__124__put_character_sequenceB8ue170006IcNS_11char_traitsIcEEEERNS_13basic_ostreamIT_T0_EES7_PKS4_m, symObjAddr: 0x2AB8, symBinAddr: 0x100006174, symSize: 0x1EC }
  - { offsetInCU: 0x6760, offset: 0x6760, size: 0x8, addend: 0x0, symName: __ZNSt3__1lsB8ue170006INS_11char_traitsIcEEEERNS_13basic_ostreamIcT_EES6_PKc, symObjAddr: 0x38C, symBinAddr: 0x100003A48, symSize: 0x48 }
  - { offsetInCU: 0x67A6, offset: 0x67A6, size: 0x8, addend: 0x0, symName: __ZNSt3__14endlB8ue170006IcNS_11char_traitsIcEEEERNS_13basic_ostreamIT_T0_EES7_, symObjAddr: 0x400, symBinAddr: 0x100003ABC, symSize: 0x58 }
  - { offsetInCU: 0x67E6, offset: 0x67E6, size: 0x8, addend: 0x0, symName: __ZNSt3__1eqB8ue170006INS_9allocatorIcEEEEbRKNS_12basic_stringIcNS_11char_traitsIcEET_EES9_, symObjAddr: 0x97C, symBinAddr: 0x100004038, symSize: 0x148 }
  - { offsetInCU: 0x6875, offset: 0x6875, size: 0x8, addend: 0x0, symName: __ZNSt3__1neB8ue170006IPP7ToppingEEbRKNS_11__wrap_iterIT_EES8_, symObjAddr: 0xD24, symBinAddr: 0x1000043E0, symSize: 0x34 }
  - { offsetInCU: 0x68B8, offset: 0x68B8, size: 0x8, addend: 0x0, symName: __ZNSt3__1eqB8ue170006IPP7ToppingEEbRKNS_11__wrap_iterIT_EES8_, symObjAddr: 0xE14, symBinAddr: 0x1000044D0, symSize: 0x48 }
  - { offsetInCU: 0x68FB, offset: 0x68FB, size: 0x8, addend: 0x0, symName: __ZNSt3__112__to_addressB8ue170006IP7ToppingEEPT_S4_, symObjAddr: 0x132C, symBinAddr: 0x1000049E8, symSize: 0x14 }
  - { offsetInCU: 0x6930, offset: 0x6930, size: 0x8, addend: 0x0, symName: __ZNSt3__119__libcpp_deallocateB8ue170006EPvmm, symObjAddr: 0x13DC, symBinAddr: 0x100004A98, symSize: 0x30 }
  - { offsetInCU: 0x6978, offset: 0x6978, size: 0x8, addend: 0x0, symName: __ZNSt3__127__do_deallocate_handle_sizeB8ue170006IJEEEvPvmDpT_, symObjAddr: 0x140C, symBinAddr: 0x100004AC8, symSize: 0x28 }
  - { offsetInCU: 0x69B6, offset: 0x69B6, size: 0x8, addend: 0x0, symName: __ZNSt3__124__libcpp_operator_deleteB8ue170006IJPvEEEvDpT_, symObjAddr: 0x1434, symBinAddr: 0x100004AF0, symSize: 0x24 }
  - { offsetInCU: 0x69EB, offset: 0x69EB, size: 0x8, addend: 0x0, symName: __ZNSt3__13maxB8ue170006ImEERKT_S3_S3_, symObjAddr: 0x1A90, symBinAddr: 0x10000514C, symSize: 0x2C }
  - { offsetInCU: 0x6A2E, offset: 0x6A2E, size: 0x8, addend: 0x0, symName: __ZNSt3__13minB8ue170006ImEERKT_S3_S3_, symObjAddr: 0x1ABC, symBinAddr: 0x100005178, symSize: 0x2C }
  - { offsetInCU: 0x6C72, offset: 0x6C72, size: 0x8, addend: 0x0, symName: __ZNSt3__13minB8ue170006ImNS_6__lessIvvEEEERKT_S5_S5_T0_, symObjAddr: 0x1B48, symBinAddr: 0x100005204, symSize: 0x54 }
  - { offsetInCU: 0x6D11, offset: 0x6D11, size: 0x8, addend: 0x0, symName: __ZNSt3__120__throw_length_errorB8ue170006EPKc, symObjAddr: 0x1C24, symBinAddr: 0x1000052E0, symSize: 0x64 }
  - { offsetInCU: 0x6D3B, offset: 0x6D3B, size: 0x8, addend: 0x0, symName: __ZNSt3__13maxB8ue170006ImNS_6__lessIvvEEEERKT_S5_S5_T0_, symObjAddr: 0x1D08, symBinAddr: 0x1000053C4, symSize: 0x54 }
  - { offsetInCU: 0x6D95, offset: 0x6D95, size: 0x8, addend: 0x0, symName: __ZNSt3__119__allocate_at_leastB8ue170006INS_9allocatorIP7ToppingEEEENS_19__allocation_resultINS_16allocator_traitsIT_E7pointerEEERS7_m, symObjAddr: 0x1E6C, symBinAddr: 0x100005528, symSize: 0x40 }
  - { offsetInCU: 0x6DD8, offset: 0x6DD8, size: 0x8, addend: 0x0, symName: __ZNSt3__117__libcpp_allocateB8ue170006Emm, symObjAddr: 0x1FF0, symBinAddr: 0x1000056AC, symSize: 0x28 }
  - { offsetInCU: 0x6E15, offset: 0x6E15, size: 0x8, addend: 0x0, symName: __ZNSt3__121__libcpp_operator_newB8ue170006IJmEEEPvDpT_, symObjAddr: 0x2018, symBinAddr: 0x1000056D4, symSize: 0x24 }
  - { offsetInCU: 0x6E4E, offset: 0x6E4E, size: 0x8, addend: 0x0, symName: __ZNSt3__142__uninitialized_allocator_move_if_noexceptB8ue170006INS_9allocatorIP7ToppingEENS_16reverse_iteratorIPS3_EES7_S3_vEET1_RT_T0_SB_S8_, symObjAddr: 0x20A0, symBinAddr: 0x10000575C, symSize: 0x78 }
  - { offsetInCU: 0x6ECB, offset: 0x6ECB, size: 0x8, addend: 0x0, symName: __ZNSt3__14swapB8ue170006IPP7ToppingEENS_9enable_ifIXaasr21is_move_constructibleIT_EE5valuesr18is_move_assignableIS5_EE5valueEvE4typeERS5_S8_, symObjAddr: 0x2164, symBinAddr: 0x100005820, symSize: 0x3C }
  - { offsetInCU: 0x6F1C, offset: 0x6F1C, size: 0x8, addend: 0x0, symName: __ZNSt3__14moveB8ue170006INS_16reverse_iteratorIPP7ToppingEES5_EET0_T_S7_S6_, symObjAddr: 0x224C, symBinAddr: 0x100005908, symSize: 0x78 }
  - { offsetInCU: 0x6F76, offset: 0x6F76, size: 0x8, addend: 0x0, symName: __ZNSt3__16__moveB8ue170006INS_17_ClassicAlgPolicyENS_16reverse_iteratorIPP7ToppingEES6_S6_EENS_4pairIT0_T2_EES8_T1_S9_, symObjAddr: 0x22C4, symBinAddr: 0x100005980, symSize: 0x64 }
  - { offsetInCU: 0x6FE2, offset: 0x6FE2, size: 0x8, addend: 0x0, symName: __ZNSt3__123__dispatch_copy_or_moveB8ue170006INS_17_ClassicAlgPolicyENS_11__move_loopIS1_EENS_14__move_trivialENS_16reverse_iteratorIPP7ToppingEES9_S9_EENS_4pairIT2_T4_EESB_T3_SC_, symObjAddr: 0x2328, symBinAddr: 0x1000059E4, symSize: 0x64 }
  - { offsetInCU: 0x7060, offset: 0x7060, size: 0x8, addend: 0x0, symName: __ZNSt3__121__unwrap_and_dispatchB8ue170006INS_10__overloadINS_11__move_loopINS_17_ClassicAlgPolicyEEENS_14__move_trivialEEENS_16reverse_iteratorIPP7ToppingEESB_SB_Li0EEENS_4pairIT0_T2_EESD_T1_SE_, symObjAddr: 0x238C, symBinAddr: 0x100005A48, symSize: 0x12C }
  - { offsetInCU: 0x70F0, offset: 0x70F0, size: 0x8, addend: 0x0, symName: __ZNSt3__114__unwrap_rangeB8ue170006INS_16reverse_iteratorIPP7ToppingEES5_EENS_4pairIT0_S7_EET_S9_, symObjAddr: 0x24B8, symBinAddr: 0x100005B74, symSize: 0x84 }
  - { offsetInCU: 0x726B, offset: 0x726B, size: 0x8, addend: 0x0, symName: __ZNSt3__113__unwrap_iterB8ue170006INS_16reverse_iteratorIPP7ToppingEENS_18__unwrap_iter_implIS5_Lb0EEELi0EEEDTclsrT0_8__unwrapclsr3stdE7declvalIT_EEEES9_, symObjAddr: 0x25DC, symBinAddr: 0x100005C98, symSize: 0x44 }
  - { offsetInCU: 0x72AF, offset: 0x72AF, size: 0x8, addend: 0x0, symName: __ZNSt3__19make_pairB8ue170006INS_16reverse_iteratorIPP7ToppingEES5_EENS_4pairINS_18__unwrap_ref_decayIT_E4typeENS7_IT0_E4typeEEEOS8_OSB_, symObjAddr: 0x2620, symBinAddr: 0x100005CDC, symSize: 0x38 }
  - { offsetInCU: 0x72FE, offset: 0x72FE, size: 0x8, addend: 0x0, symName: __ZNSt3__114__rewrap_rangeB8ue170006INS_16reverse_iteratorIPP7ToppingEES5_EET_S6_T0_, symObjAddr: 0x2658, symBinAddr: 0x100005D14, symSize: 0x5C }
  - { offsetInCU: 0x734A, offset: 0x734A, size: 0x8, addend: 0x0, symName: __ZNSt3__113__rewrap_iterB8ue170006INS_16reverse_iteratorIPP7ToppingEES5_NS_18__unwrap_iter_implIS5_Lb0EEEEET_S8_T0_, symObjAddr: 0x26B4, symBinAddr: 0x100005D70, symSize: 0x74 }
  - { offsetInCU: 0x739F, offset: 0x739F, size: 0x8, addend: 0x0, symName: __ZNSt3__1neB8ue170006IPP7ToppingS3_EEbRKNS_16reverse_iteratorIT_EERKNS4_IT0_EE, symObjAddr: 0x2728, symBinAddr: 0x100005DE4, symSize: 0x48 }
  - { offsetInCU: 0x749D, offset: 0x749D, size: 0x8, addend: 0x0, symName: __ZNSt3__116__pad_and_outputB8ue170006IcNS_11char_traitsIcEEEENS_19ostreambuf_iteratorIT_T0_EES6_PKS4_S8_S8_RNS_8ios_baseES4_, symObjAddr: 0x2CF4, symBinAddr: 0x1000063B0, symSize: 0x240 }
  - { offsetInCU: 0x756C, offset: 0x756C, size: 0x8, addend: 0x0, symName: __ZNSt3__112__to_addressB8ue170006IKcEEPT_S3_, symObjAddr: 0x325C, symBinAddr: 0x100006918, symSize: 0x14 }
  - { offsetInCU: 0x75D4, offset: 0x75D4, size: 0x8, addend: 0x0, symName: __ZNSt3__19use_facetB8ue170006INS_5ctypeIcEEEERKT_RKNS_6localeE, symObjAddr: 0x34DC, symBinAddr: 0x100006B98, symSize: 0x2C }
  - { offsetInCU: 0x7AA1, offset: 0x7AA1, size: 0x8, addend: 0x0, symName: __ZNSt3__118__constexpr_strlenB8ue170006EPKc, symObjAddr: 0x3574, symBinAddr: 0x100006C30, symSize: 0x24 }
  - { offsetInCU: 0x7ACD, offset: 0x7ACD, size: 0x8, addend: 0x0, symName: __ZNSt3__1miB8ue170006IPKP7ToppingS4_EEDTmicldtfp_4baseEcldtfp0_4baseEERKNS_11__wrap_iterIT_EERKNS6_IT0_EE, symObjAddr: 0x3780, symBinAddr: 0x100006E3C, symSize: 0x48 }
  - { offsetInCU: 0x7B19, offset: 0x7B19, size: 0x8, addend: 0x0, symName: __ZNSt3__14moveB8ue170006IPP7ToppingS3_EET0_T_S5_S4_, symObjAddr: 0x3840, symBinAddr: 0x100006EFC, symSize: 0x40 }
  - { offsetInCU: 0x7B73, offset: 0x7B73, size: 0x8, addend: 0x0, symName: __ZNSt3__16__moveB8ue170006INS_17_ClassicAlgPolicyEPP7ToppingS4_S4_EENS_4pairIT0_T2_EES6_T1_S7_, symObjAddr: 0x3A00, symBinAddr: 0x1000070BC, symSize: 0x44 }
  - { offsetInCU: 0x7BDF, offset: 0x7BDF, size: 0x8, addend: 0x0, symName: __ZNSt3__123__dispatch_copy_or_moveB8ue170006INS_17_ClassicAlgPolicyENS_11__move_loopIS1_EENS_14__move_trivialEPP7ToppingS7_S7_EENS_4pairIT2_T4_EES9_T3_SA_, symObjAddr: 0x3A44, symBinAddr: 0x100007100, symSize: 0x44 }
  - { offsetInCU: 0x7C5D, offset: 0x7C5D, size: 0x8, addend: 0x0, symName: __ZNSt3__121__unwrap_and_dispatchB8ue170006INS_10__overloadINS_11__move_loopINS_17_ClassicAlgPolicyEEENS_14__move_trivialEEEPP7ToppingS9_S9_Li0EEENS_4pairIT0_T2_EESB_T1_SC_, symObjAddr: 0x3A88, symBinAddr: 0x100007144, symSize: 0xB4 }
  - { offsetInCU: 0x7CEB, offset: 0x7CEB, size: 0x8, addend: 0x0, symName: __ZNSt3__114__unwrap_rangeB8ue170006IPP7ToppingS3_EENS_4pairIT0_S5_EET_S7_, symObjAddr: 0x3B3C, symBinAddr: 0x1000071F8, symSize: 0x60 }
  - { offsetInCU: 0x7E80, offset: 0x7E80, size: 0x8, addend: 0x0, symName: __ZNSt3__113__unwrap_iterB8ue170006IPP7ToppingNS_18__unwrap_iter_implIS3_Lb1EEELi0EEEDTclsrT0_8__unwrapclsr3stdE7declvalIT_EEEES7_, symObjAddr: 0x3BE4, symBinAddr: 0x1000072A0, symSize: 0x24 }
  - { offsetInCU: 0x7EC4, offset: 0x7EC4, size: 0x8, addend: 0x0, symName: __ZNSt3__19make_pairB8ue170006IPP7ToppingS3_EENS_4pairINS_18__unwrap_ref_decayIT_E4typeENS5_IT0_E4typeEEEOS6_OS9_, symObjAddr: 0x3C08, symBinAddr: 0x1000072C4, symSize: 0x38 }
  - { offsetInCU: 0x7F13, offset: 0x7F13, size: 0x8, addend: 0x0, symName: __ZNSt3__114__rewrap_rangeB8ue170006IPP7ToppingS3_EET_S4_T0_, symObjAddr: 0x3C40, symBinAddr: 0x1000072FC, symSize: 0x2C }
  - { offsetInCU: 0x7F5F, offset: 0x7F5F, size: 0x8, addend: 0x0, symName: __ZNSt3__113__rewrap_iterB8ue170006IPP7ToppingS3_NS_18__unwrap_iter_implIS3_Lb1EEEEET_S6_T0_, symObjAddr: 0x3C6C, symBinAddr: 0x100007328, symSize: 0x3C }
  - { offsetInCU: 0x7FB4, offset: 0x7FB4, size: 0x8, addend: 0x0, symName: __ZNSt3__119__copy_trivial_implB8ue170006IP7ToppingS2_EENS_4pairIPT_PT0_EES5_S5_S7_, symObjAddr: 0x3CA8, symBinAddr: 0x100007364, symSize: 0x80 }
  - { offsetInCU: 0x801C, offset: 0x801C, size: 0x8, addend: 0x0, symName: __ZNSt3__119__constexpr_memmoveB8ue170006IP7ToppingS2_Li0EEEPT_S4_PT0_NS_15__element_countE, symObjAddr: 0x3D28, symBinAddr: 0x1000073E4, symSize: 0x64 }
  - { offsetInCU: 0x808A, offset: 0x808A, size: 0x8, addend: 0x0, symName: __ZNSt3__19make_pairB8ue170006IRPP7ToppingS3_EENS_4pairINS_18__unwrap_ref_decayIT_E4typeENS6_IT0_E4typeEEEOS7_OSA_, symObjAddr: 0x3D8C, symBinAddr: 0x100007448, symSize: 0x38 }
  - { offsetInCU: 0x839C, offset: 0x839C, size: 0x8, addend: 0x0, symName: __ZSt28__throw_bad_array_new_lengthB8ue170006v, symObjAddr: 0x1FBC, symBinAddr: 0x100005678, symSize: 0x34 }
  - { offsetInCU: 0x8993, offset: 0x8993, size: 0x8, addend: 0x0, symName: __ZNSt3__16vectorIP7ToppingNS_9allocatorIS2_EEE26__swap_out_circular_bufferERNS_14__split_bufferIS2_RS4_EE, symObjAddr: 0x18D8, symBinAddr: 0x100004F94, symSize: 0x110 }
  - { offsetInCU: 0xAEAC, offset: 0xAEAC, size: 0x8, addend: 0x0, symName: __ZN5PizzaC2Ev, symObjAddr: 0x0, symBinAddr: 0x1000036BC, symSize: 0x58 }
  - { offsetInCU: 0xAED7, offset: 0xAED7, size: 0x8, addend: 0x0, symName: __ZNSt3__16vectorIP7ToppingNS_9allocatorIS2_EEEC1B8ue170006Ev, symObjAddr: 0x58, symBinAddr: 0x100003714, symSize: 0x2C }
  - { offsetInCU: 0xAF00, offset: 0xAF00, size: 0x8, addend: 0x0, symName: __ZN5Pizza9getRadiusEv, symObjAddr: 0x84, symBinAddr: 0x100003740, symSize: 0x18 }
  - { offsetInCU: 0xAF27, offset: 0xAF27, size: 0x8, addend: 0x0, symName: __ZN5Pizza17getCrustThicknessEv, symObjAddr: 0x9C, symBinAddr: 0x100003758, symSize: 0x18 }
  - { offsetInCU: 0xAF4E, offset: 0xAF4E, size: 0x8, addend: 0x0, symName: __ZN5Pizza11addToppingsEi, symObjAddr: 0xB4, symBinAddr: 0x100003770, symSize: 0x25C }
  - { offsetInCU: 0xAFEE, offset: 0xAFEE, size: 0x8, addend: 0x0, symName: __ZNSt3__16vectorIP7ToppingNS_9allocatorIS2_EEE9push_backB8ue170006ERKS2_, symObjAddr: 0x320, symBinAddr: 0x1000039DC, symSize: 0x6C }
  - { offsetInCU: 0xB024, offset: 0xB024, size: 0x8, addend: 0x0, symName: __ZNSt3__113basic_ostreamIcNS_11char_traitsIcEEElsB8ue170006EPFRS3_S4_E, symObjAddr: 0x3D4, symBinAddr: 0x100003A90, symSize: 0x2C }
  - { offsetInCU: 0xB057, offset: 0xB057, size: 0x8, addend: 0x0, symName: __ZN5Pizza22removeToppingFromPizzaEi, symObjAddr: 0x458, symBinAddr: 0x100003B14, symSize: 0x468 }
  - { offsetInCU: 0xB0CC, offset: 0xB0CC, size: 0x8, addend: 0x0, symName: __ZNSt3__112basic_stringIcNS_11char_traitsIcEENS_9allocatorIcEEEC1B8ue170006ILi0EEEPKc, symObjAddr: 0x8D0, symBinAddr: 0x100003F8C, symSize: 0x34 }
  - { offsetInCU: 0xB10A, offset: 0xB10A, size: 0x8, addend: 0x0, symName: __ZNSt3__112basic_stringIcNS_11char_traitsIcEENS_9allocatorIcEEEaSB8ue170006EPKc, symObjAddr: 0x904, symBinAddr: 0x100003FC0, symSize: 0x2C }
  - { offsetInCU: 0xB13E, offset: 0xB13E, size: 0x8, addend: 0x0, symName: __ZNKSt3__16vectorIP7ToppingNS_9allocatorIS2_EEE4sizeB8ue170006Ev, symObjAddr: 0x930, symBinAddr: 0x100003FEC, symSize: 0x28 }
  - { offsetInCU: 0xB163, offset: 0xB163, size: 0x8, addend: 0x0, symName: __ZNSt3__16vectorIP7ToppingNS_9allocatorIS2_EEEixB8ue170006Em, symObjAddr: 0x958, symBinAddr: 0x100004014, symSize: 0x24 }
  - { offsetInCU: 0xB198, offset: 0xB198, size: 0x8, addend: 0x0, symName: __ZNSt3__16vectorIP7ToppingNS_9allocatorIS2_EEE5eraseB8ue170006ENS_11__wrap_iterIPKS2_EE, symObjAddr: 0xAC4, symBinAddr: 0x100004180, symSize: 0x94 }
  - { offsetInCU: 0xB1EB, offset: 0xB1EB, size: 0x8, addend: 0x0, symName: __ZNSt3__16vectorIP7ToppingNS_9allocatorIS2_EEE5beginB8ue170006Ev, symObjAddr: 0xB58, symBinAddr: 0x100004214, symSize: 0x30 }
  - { offsetInCU: 0xB212, offset: 0xB212, size: 0x8, addend: 0x0, symName: __ZNKSt3__111__wrap_iterIPP7ToppingEplB8ue170006El, symObjAddr: 0xB88, symBinAddr: 0x100004244, symSize: 0x3C }
  - { offsetInCU: 0xB25D, offset: 0xB25D, size: 0x8, addend: 0x0, symName: __ZNSt3__111__wrap_iterIPKP7ToppingEC1B8ue170006IPS2_EERKNS0_IT_EEPNS_9enable_ifIXsr14is_convertibleIS8_S4_EE5valueEvE4typeE, symObjAddr: 0xBC4, symBinAddr: 0x100004280, symSize: 0x3C }
  - { offsetInCU: 0xB2A8, offset: 0xB2A8, size: 0x8, addend: 0x0, symName: __ZN5Pizza11getToppingsEv, symObjAddr: 0xC00, symBinAddr: 0x1000042BC, symSize: 0x18 }
  - { offsetInCU: 0xB2CF, offset: 0xB2CF, size: 0x8, addend: 0x0, symName: __ZN5PizzaD2Ev, symObjAddr: 0xC18, symBinAddr: 0x1000042D4, symSize: 0xDC }
  - { offsetInCU: 0xB34C, offset: 0xB34C, size: 0x8, addend: 0x0, symName: __ZNSt3__16vectorIP7ToppingNS_9allocatorIS2_EEE3endB8ue170006Ev, symObjAddr: 0xCF4, symBinAddr: 0x1000043B0, symSize: 0x30 }
  - { offsetInCU: 0xB373, offset: 0xB373, size: 0x8, addend: 0x0, symName: __ZNKSt3__111__wrap_iterIPP7ToppingEdeB8ue170006Ev, symObjAddr: 0xD58, symBinAddr: 0x100004414, symSize: 0x18 }
  - { offsetInCU: 0xB398, offset: 0xB398, size: 0x8, addend: 0x0, symName: __ZNSt3__111__wrap_iterIPP7ToppingEppB8ue170006Ev, symObjAddr: 0xD70, symBinAddr: 0x10000442C, symSize: 0x20 }
  - { offsetInCU: 0xB3BD, offset: 0xB3BD, size: 0x8, addend: 0x0, symName: __ZNSt3__16vectorIP7ToppingNS_9allocatorIS2_EEE5clearB8ue170006Ev, symObjAddr: 0xD90, symBinAddr: 0x10000444C, symSize: 0x44 }
  - { offsetInCU: 0xB3F1, offset: 0xB3F1, size: 0x8, addend: 0x0, symName: __ZNSt3__16vectorIP7ToppingNS_9allocatorIS2_EEED1B8ue170006Ev, symObjAddr: 0xDD4, symBinAddr: 0x100004490, symSize: 0x2C }
  - { offsetInCU: 0xB41A, offset: 0xB41A, size: 0x8, addend: 0x0, symName: __ZN5PizzaD1Ev, symObjAddr: 0xE00, symBinAddr: 0x1000044BC, symSize: 0x14 }
  - { offsetInCU: 0xB445, offset: 0xB445, size: 0x8, addend: 0x0, symName: __ZNKSt3__111__wrap_iterIPP7ToppingE4baseB8ue170006Ev, symObjAddr: 0xE5C, symBinAddr: 0x100004518, symSize: 0x18 }
  - { offsetInCU: 0xB46A, offset: 0xB46A, size: 0x8, addend: 0x0, symName: __ZNSt3__16vectorIP7ToppingNS_9allocatorIS2_EEEC2B8ue170006Ev, symObjAddr: 0xE74, symBinAddr: 0x100004530, symSize: 0x4C }
  - { offsetInCU: 0xB49D, offset: 0xB49D, size: 0x8, addend: 0x0, symName: __ZNSt3__117__compressed_pairIPP7ToppingNS_9allocatorIS2_EEEC1B8ue170006IDnNS_18__default_init_tagEEEOT_OT0_, symObjAddr: 0xEC0, symBinAddr: 0x10000457C, symSize: 0x3C }
  - { offsetInCU: 0xB4F4, offset: 0xB4F4, size: 0x8, addend: 0x0, symName: __ZNSt3__117__compressed_pairIPP7ToppingNS_9allocatorIS2_EEEC2B8ue170006IDnNS_18__default_init_tagEEEOT_OT0_, symObjAddr: 0xF08, symBinAddr: 0x1000045C4, symSize: 0x40 }
  - { offsetInCU: 0xB54B, offset: 0xB54B, size: 0x8, addend: 0x0, symName: __ZNSt3__122__compressed_pair_elemIPP7ToppingLi0ELb0EEC2B8ue170006IDnvEEOT_, symObjAddr: 0xF48, symBinAddr: 0x100004604, symSize: 0x1C }
  - { offsetInCU: 0xB58C, offset: 0xB58C, size: 0x8, addend: 0x0, symName: __ZNSt3__122__compressed_pair_elemINS_9allocatorIP7ToppingEELi1ELb1EEC2B8ue170006ENS_18__default_init_tagE, symObjAddr: 0xF64, symBinAddr: 0x100004620, symSize: 0x2C }
  - { offsetInCU: 0xB5C0, offset: 0xB5C0, size: 0x8, addend: 0x0, symName: __ZNSt3__19allocatorIP7ToppingEC2B8ue170006Ev, symObjAddr: 0xF90, symBinAddr: 0x10000464C, symSize: 0x2C }
  - { offsetInCU: 0xB5E9, offset: 0xB5E9, size: 0x8, addend: 0x0, symName: __ZNSt3__116__non_trivial_ifILb1ENS_9allocatorIP7ToppingEEEC2B8ue170006Ev, symObjAddr: 0xFBC, symBinAddr: 0x100004678, symSize: 0x14 }
  - { offsetInCU: 0xB612, offset: 0xB612, size: 0x8, addend: 0x0, symName: __ZNSt3__16vectorIP7ToppingNS_9allocatorIS2_EEED2B8ue170006Ev, symObjAddr: 0xFD0, symBinAddr: 0x10000468C, symSize: 0x44 }
  - { offsetInCU: 0xB63B, offset: 0xB63B, size: 0x8, addend: 0x0, symName: __ZNSt3__16vectorIP7ToppingNS_9allocatorIS2_EEE16__destroy_vectorC1B8ue170006ERS5_, symObjAddr: 0x1014, symBinAddr: 0x1000046D0, symSize: 0x34 }
  - { offsetInCU: 0xB673, offset: 0xB673, size: 0x8, addend: 0x0, symName: __ZNSt3__16vectorIP7ToppingNS_9allocatorIS2_EEE16__destroy_vectorclB8ue170006Ev, symObjAddr: 0x1048, symBinAddr: 0x100004704, symSize: 0x90 }
  - { offsetInCU: 0xB698, offset: 0xB698, size: 0x8, addend: 0x0, symName: __ZNSt3__16vectorIP7ToppingNS_9allocatorIS2_EEE16__destroy_vectorC2B8ue170006ERS5_, symObjAddr: 0x10D8, symBinAddr: 0x100004794, symSize: 0x20 }
  - { offsetInCU: 0xB6D0, offset: 0xB6D0, size: 0x8, addend: 0x0, symName: __ZNSt3__16vectorIP7ToppingNS_9allocatorIS2_EEE7__clearB8ue170006Ev, symObjAddr: 0x10F8, symBinAddr: 0x1000047B4, symSize: 0x28 }
  - { offsetInCU: 0xB6F5, offset: 0xB6F5, size: 0x8, addend: 0x0, symName: __ZNKSt3__16vectorIP7ToppingNS_9allocatorIS2_EEE17__annotate_deleteB8ue170006Ev, symObjAddr: 0x1120, symBinAddr: 0x1000047DC, symSize: 0xB8 }
  - { offsetInCU: 0xB71A, offset: 0xB71A, size: 0x8, addend: 0x0, symName: __ZNSt3__116allocator_traitsINS_9allocatorIP7ToppingEEE10deallocateB8ue170006ERS4_PS3_m, symObjAddr: 0x11D8, symBinAddr: 0x100004894, symSize: 0x34 }
  - { offsetInCU: 0xB75C, offset: 0xB75C, size: 0x8, addend: 0x0, symName: __ZNSt3__16vectorIP7ToppingNS_9allocatorIS2_EEE7__allocB8ue170006Ev, symObjAddr: 0x120C, symBinAddr: 0x1000048C8, symSize: 0x28 }
  - { offsetInCU: 0xB781, offset: 0xB781, size: 0x8, addend: 0x0, symName: __ZNKSt3__16vectorIP7ToppingNS_9allocatorIS2_EEE8capacityB8ue170006Ev, symObjAddr: 0x1234, symBinAddr: 0x1000048F0, symSize: 0x40 }
  - { offsetInCU: 0xB7A6, offset: 0xB7A6, size: 0x8, addend: 0x0, symName: __ZNSt3__16vectorIP7ToppingNS_9allocatorIS2_EEE22__base_destruct_at_endB8ue170006EPS2_, symObjAddr: 0x1274, symBinAddr: 0x100004930, symSize: 0x8C }
  - { offsetInCU: 0xB7E9, offset: 0xB7E9, size: 0x8, addend: 0x0, symName: __ZNSt3__116allocator_traitsINS_9allocatorIP7ToppingEEE7destroyB8ue170006IS3_vEEvRS4_PT_, symObjAddr: 0x1300, symBinAddr: 0x1000049BC, symSize: 0x2C }
  - { offsetInCU: 0xB826, offset: 0xB826, size: 0x8, addend: 0x0, symName: __ZNSt3__19allocatorIP7ToppingE7destroyB8ue170006EPS2_, symObjAddr: 0x1340, symBinAddr: 0x1000049FC, symSize: 0x14 }
  - { offsetInCU: 0xB859, offset: 0xB859, size: 0x8, addend: 0x0, symName: __ZNKSt3__16vectorIP7ToppingNS_9allocatorIS2_EEE31__annotate_contiguous_containerB8ue170006EPKvS7_S7_S7_, symObjAddr: 0x1354, symBinAddr: 0x100004A10, symSize: 0x20 }
  - { offsetInCU: 0xB8AA, offset: 0xB8AA, size: 0x8, addend: 0x0, symName: __ZNKSt3__16vectorIP7ToppingNS_9allocatorIS2_EEE4dataB8ue170006Ev, symObjAddr: 0x1374, symBinAddr: 0x100004A30, symSize: 0x28 }
  - { offsetInCU: 0xB8CF, offset: 0xB8CF, size: 0x8, addend: 0x0, symName: __ZNSt3__19allocatorIP7ToppingE10deallocateB8ue170006EPS2_m, symObjAddr: 0x139C, symBinAddr: 0x100004A58, symSize: 0x40 }
  - { offsetInCU: 0xB910, offset: 0xB910, size: 0x8, addend: 0x0, symName: __ZNSt3__117__compressed_pairIPP7ToppingNS_9allocatorIS2_EEE6secondB8ue170006Ev, symObjAddr: 0x1458, symBinAddr: 0x100004B14, symSize: 0x24 }
  - { offsetInCU: 0xB935, offset: 0xB935, size: 0x8, addend: 0x0, symName: __ZNSt3__122__compressed_pair_elemINS_9allocatorIP7ToppingEELi1ELb1EE5__getB8ue170006Ev, symObjAddr: 0x147C, symBinAddr: 0x100004B38, symSize: 0x14 }
  - { offsetInCU: 0xB95A, offset: 0xB95A, size: 0x8, addend: 0x0, symName: __ZNKSt3__16vectorIP7ToppingNS_9allocatorIS2_EEE9__end_capB8ue170006Ev, symObjAddr: 0x1490, symBinAddr: 0x100004B4C, symSize: 0x28 }
  - { offsetInCU: 0xB97F, offset: 0xB97F, size: 0x8, addend: 0x0, symName: __ZNKSt3__117__compressed_pairIPP7ToppingNS_9allocatorIS2_EEE5firstB8ue170006Ev, symObjAddr: 0x14B8, symBinAddr: 0x100004B74, symSize: 0x24 }
  - { offsetInCU: 0xB9A4, offset: 0xB9A4, size: 0x8, addend: 0x0, symName: __ZNKSt3__122__compressed_pair_elemIPP7ToppingLi0ELb0EE5__getB8ue170006Ev, symObjAddr: 0x14DC, symBinAddr: 0x100004B98, symSize: 0x14 }
  - { offsetInCU: 0xB9C9, offset: 0xB9C9, size: 0x8, addend: 0x0, symName: __ZNSt3__16vectorIP7ToppingNS_9allocatorIS2_EEE9__end_capB8ue170006Ev, symObjAddr: 0x14F0, symBinAddr: 0x100004BAC, symSize: 0x28 }
  - { offsetInCU: 0xB9EE, offset: 0xB9EE, size: 0x8, addend: 0x0, symName: __ZNSt3__16vectorIP7ToppingNS_9allocatorIS2_EEE22__construct_one_at_endB8ue170006IJRKS2_EEEvDpOT_, symObjAddr: 0x1518, symBinAddr: 0x100004BD4, symSize: 0x90 }
  - { offsetInCU: 0xBA3B, offset: 0xBA3B, size: 0x8, addend: 0x0, symName: __ZNSt3__16vectorIP7ToppingNS_9allocatorIS2_EEE21__push_back_slow_pathIRKS2_EEvOT_, symObjAddr: 0x15A8, symBinAddr: 0x100004C64, symSize: 0xD8 }
  - { offsetInCU: 0xBA98, offset: 0xBA98, size: 0x8, addend: 0x0, symName: __ZNSt3__117__compressed_pairIPP7ToppingNS_9allocatorIS2_EEE5firstB8ue170006Ev, symObjAddr: 0x1680, symBinAddr: 0x100004D3C, symSize: 0x24 }
  - { offsetInCU: 0xBABD, offset: 0xBABD, size: 0x8, addend: 0x0, symName: __ZNSt3__122__compressed_pair_elemIPP7ToppingLi0ELb0EE5__getB8ue170006Ev, symObjAddr: 0x16A4, symBinAddr: 0x100004D60, symSize: 0x14 }
  - { offsetInCU: 0xBAFB, offset: 0xBAFB, size: 0x8, addend: 0x0, symName: __ZNSt3__16vectorIP7ToppingNS_9allocatorIS2_EEE21_ConstructTransactionC1B8ue170006ERS5_m, symObjAddr: 0x16B8, symBinAddr: 0x100004D74, symSize: 0x3C }
  - { offsetInCU: 0xBB42, offset: 0xBB42, size: 0x8, addend: 0x0, symName: __ZNSt3__116allocator_traitsINS_9allocatorIP7ToppingEEE9constructB8ue170006IS3_JRKS3_EvEEvRS4_PT_DpOT0_, symObjAddr: 0x16F4, symBinAddr: 0x100004DB0, symSize: 0x34 }
  - { offsetInCU: 0xBB99, offset: 0xBB99, size: 0x8, addend: 0x0, symName: __ZNSt3__16vectorIP7ToppingNS_9allocatorIS2_EEE21_ConstructTransactionD1B8ue170006Ev, symObjAddr: 0x1728, symBinAddr: 0x100004DE4, symSize: 0x2C }
  - { offsetInCU: 0xBBC2, offset: 0xBBC2, size: 0x8, addend: 0x0, symName: __ZNSt3__16vectorIP7ToppingNS_9allocatorIS2_EEE21_ConstructTransactionC2B8ue170006ERS5_m, symObjAddr: 0x1754, symBinAddr: 0x100004E10, symSize: 0x44 }
  - { offsetInCU: 0xBC09, offset: 0xBC09, size: 0x8, addend: 0x0, symName: __ZNSt3__19allocatorIP7ToppingE9constructB8ue170006IS2_JRKS2_EEEvPT_DpOT0_, symObjAddr: 0x1798, symBinAddr: 0x100004E54, symSize: 0x28 }
  - { offsetInCU: 0xBC5E, offset: 0xBC5E, size: 0x8, addend: 0x0, symName: __ZNSt3__16vectorIP7ToppingNS_9allocatorIS2_EEE21_ConstructTransactionD2B8ue170006Ev, symObjAddr: 0x17C0, symBinAddr: 0x100004E7C, symSize: 0x20 }
  - { offsetInCU: 0xBC86, offset: 0xBC86, size: 0x8, addend: 0x0, symName: __ZNKSt3__16vectorIP7ToppingNS_9allocatorIS2_EEE11__recommendB8ue170006Em, symObjAddr: 0x17E0, symBinAddr: 0x100004E9C, symSize: 0xB4 }
  - { offsetInCU: 0xBCDA, offset: 0xBCDA, size: 0x8, addend: 0x0, symName: __ZNSt3__114__split_bufferIP7ToppingRNS_9allocatorIS2_EEEC1EmmS5_, symObjAddr: 0x1894, symBinAddr: 0x100004F50, symSize: 0x44 }
  - { offsetInCU: 0xBD2F, offset: 0xBD2F, size: 0x8, addend: 0x0, symName: __ZNSt3__114__split_bufferIP7ToppingRNS_9allocatorIS2_EEED1Ev, symObjAddr: 0x19E8, symBinAddr: 0x1000050A4, symSize: 0x2C }
  - { offsetInCU: 0xBD59, offset: 0xBD59, size: 0x8, addend: 0x0, symName: __ZNKSt3__16vectorIP7ToppingNS_9allocatorIS2_EEE8max_sizeEv, symObjAddr: 0x1A14, symBinAddr: 0x1000050D0, symSize: 0x60 }
  - { offsetInCU: 0xBD80, offset: 0xBD80, size: 0x8, addend: 0x0, symName: __ZNKSt3__16vectorIP7ToppingNS_9allocatorIS2_EEE20__throw_length_errorB8ue170006Ev, symObjAddr: 0x1A74, symBinAddr: 0x100005130, symSize: 0x1C }
  - { offsetInCU: 0xBDAF, offset: 0xBDAF, size: 0x8, addend: 0x0, symName: __ZNSt3__116allocator_traitsINS_9allocatorIP7ToppingEEE8max_sizeB8ue170006IS4_vEEmRKS4_, symObjAddr: 0x1AE8, symBinAddr: 0x1000051A4, symSize: 0x24 }
  - { offsetInCU: 0xBDDD, offset: 0xBDDD, size: 0x8, addend: 0x0, symName: __ZNKSt3__16vectorIP7ToppingNS_9allocatorIS2_EEE7__allocB8ue170006Ev, symObjAddr: 0x1B0C, symBinAddr: 0x1000051C8, symSize: 0x28 }
  - { offsetInCU: 0xBE02, offset: 0xBE02, size: 0x8, addend: 0x0, symName: __ZNSt3__114numeric_limitsIlE3maxB8ue170006Ev, symObjAddr: 0x1B34, symBinAddr: 0x1000051F0, symSize: 0x14 }
  - { offsetInCU: 0xBE2A, offset: 0xBE2A, size: 0x8, addend: 0x0, symName: __ZNKSt3__16__lessIvvEclB8ue170006ImmEEbRKT_RKT0_, symObjAddr: 0x1B9C, symBinAddr: 0x100005258, symSize: 0x34 }
  - { offsetInCU: 0xBE7D, offset: 0xBE7D, size: 0x8, addend: 0x0, symName: __ZNKSt3__19allocatorIP7ToppingE8max_sizeB8ue170006Ev, symObjAddr: 0x1BD0, symBinAddr: 0x10000528C, symSize: 0x14 }
  - { offsetInCU: 0xBEA2, offset: 0xBEA2, size: 0x8, addend: 0x0, symName: __ZNKSt3__117__compressed_pairIPP7ToppingNS_9allocatorIS2_EEE6secondB8ue170006Ev, symObjAddr: 0x1BE4, symBinAddr: 0x1000052A0, symSize: 0x24 }
  - { offsetInCU: 0xBEC7, offset: 0xBEC7, size: 0x8, addend: 0x0, symName: __ZNKSt3__122__compressed_pair_elemINS_9allocatorIP7ToppingEELi1ELb1EE5__getB8ue170006Ev, symObjAddr: 0x1C08, symBinAddr: 0x1000052C4, symSize: 0x14 }
  - { offsetInCU: 0xBEEC, offset: 0xBEEC, size: 0x8, addend: 0x0, symName: __ZNSt3__123__libcpp_numeric_limitsIlLb1EE3maxB8ue170006Ev, symObjAddr: 0x1C1C, symBinAddr: 0x1000052D8, symSize: 0x8 }
  - { offsetInCU: 0xBF00, offset: 0xBF00, size: 0x8, addend: 0x0, symName: __ZNSt12length_errorC1B8ue170006EPKc, symObjAddr: 0x1C88, symBinAddr: 0x100005344, symSize: 0x34 }
  - { offsetInCU: 0xBF37, offset: 0xBF37, size: 0x8, addend: 0x0, symName: __ZNSt12length_errorC2B8ue170006EPKc, symObjAddr: 0x1CBC, symBinAddr: 0x100005378, symSize: 0x4C }
  - { offsetInCU: 0xBF6E, offset: 0xBF6E, size: 0x8, addend: 0x0, symName: __ZNSt3__114__split_bufferIP7ToppingRNS_9allocatorIS2_EEEC2EmmS5_, symObjAddr: 0x1D5C, symBinAddr: 0x100005418, symSize: 0xD4 }
  - { offsetInCU: 0xBFE1, offset: 0xBFE1, size: 0x8, addend: 0x0, symName: __ZNSt3__117__compressed_pairIPP7ToppingRNS_9allocatorIS2_EEEC1B8ue170006IDnS6_EEOT_OT0_, symObjAddr: 0x1E30, symBinAddr: 0x1000054EC, symSize: 0x3C }
  - { offsetInCU: 0xC038, offset: 0xC038, size: 0x8, addend: 0x0, symName: __ZNSt3__114__split_bufferIP7ToppingRNS_9allocatorIS2_EEE7__allocB8ue170006Ev, symObjAddr: 0x1EAC, symBinAddr: 0x100005568, symSize: 0x28 }
  - { offsetInCU: 0xC05D, offset: 0xC05D, size: 0x8, addend: 0x0, symName: __ZNSt3__114__split_bufferIP7ToppingRNS_9allocatorIS2_EEE9__end_capB8ue170006Ev, symObjAddr: 0x1ED4, symBinAddr: 0x100005590, symSize: 0x28 }
  - { offsetInCU: 0xC082, offset: 0xC082, size: 0x8, addend: 0x0, symName: __ZNSt3__117__compressed_pairIPP7ToppingRNS_9allocatorIS2_EEEC2B8ue170006IDnS6_EEOT_OT0_, symObjAddr: 0x1EFC, symBinAddr: 0x1000055B8, symSize: 0x48 }
  - { offsetInCU: 0xC0D9, offset: 0xC0D9, size: 0x8, addend: 0x0, symName: __ZNSt3__122__compressed_pair_elemIRNS_9allocatorIP7ToppingEELi1ELb0EEC2B8ue170006IS5_vEEOT_, symObjAddr: 0x1F44, symBinAddr: 0x100005600, symSize: 0x20 }
  - { offsetInCU: 0xC11A, offset: 0xC11A, size: 0x8, addend: 0x0, symName: __ZNSt3__19allocatorIP7ToppingE8allocateB8ue170006Em, symObjAddr: 0x1F64, symBinAddr: 0x100005620, symSize: 0x58 }
  - { offsetInCU: 0xC14D, offset: 0xC14D, size: 0x8, addend: 0x0, symName: __ZNSt3__117__compressed_pairIPP7ToppingRNS_9allocatorIS2_EEE6secondB8ue170006Ev, symObjAddr: 0x203C, symBinAddr: 0x1000056F8, symSize: 0x28 }
  - { offsetInCU: 0xC172, offset: 0xC172, size: 0x8, addend: 0x0, symName: __ZNSt3__122__compressed_pair_elemIRNS_9allocatorIP7ToppingEELi1ELb0EE5__getB8ue170006Ev, symObjAddr: 0x2064, symBinAddr: 0x100005720, symSize: 0x18 }
  - { offsetInCU: 0xC197, offset: 0xC197, size: 0x8, addend: 0x0, symName: __ZNSt3__117__compressed_pairIPP7ToppingRNS_9allocatorIS2_EEE5firstB8ue170006Ev, symObjAddr: 0x207C, symBinAddr: 0x100005738, symSize: 0x24 }
  - { offsetInCU: 0xC1BC, offset: 0xC1BC, size: 0x8, addend: 0x0, symName: __ZNSt3__116reverse_iteratorIPP7ToppingEC1B8ue170006ES3_, symObjAddr: 0x2118, symBinAddr: 0x1000057D4, symSize: 0x34 }
  - { offsetInCU: 0xC1F3, offset: 0xC1F3, size: 0x8, addend: 0x0, symName: __ZNKSt3__116reverse_iteratorIPP7ToppingE4baseB8ue170006Ev, symObjAddr: 0x214C, symBinAddr: 0x100005808, symSize: 0x18 }
  - { offsetInCU: 0xC218, offset: 0xC218, size: 0x8, addend: 0x0, symName: __ZNKSt3__16vectorIP7ToppingNS_9allocatorIS2_EEE14__annotate_newB8ue170006Em, symObjAddr: 0x21A0, symBinAddr: 0x10000585C, symSize: 0xAC }
  - { offsetInCU: 0xC26F, offset: 0xC26F, size: 0x8, addend: 0x0, symName: __ZNKSt3__111__move_loopINS_17_ClassicAlgPolicyEEclB8ue170006INS_16reverse_iteratorIPP7ToppingEES8_S8_EENS_4pairIT_T1_EESA_T0_SB_, symObjAddr: 0x253C, symBinAddr: 0x100005BF8, symSize: 0xA0 }
  - { offsetInCU: 0xC2DE, offset: 0xC2DE, size: 0x8, addend: 0x0, symName: __ZNSt3__18_IterOpsINS_17_ClassicAlgPolicyEE11__iter_moveB8ue170006IRNS_16reverse_iteratorIPP7ToppingEEEENS_9enable_ifIXsr12is_referenceIDTdeclsr3stdE7declvalIRT_EEEEE5valueEDTclsr3stdE4movedeclsr3stdE7declvalISC_EEEEE4typeEOSB_, symObjAddr: 0x2770, symBinAddr: 0x100005E2C, symSize: 0x28 }
  - { offsetInCU: 0xC30A, offset: 0xC30A, size: 0x8, addend: 0x0, symName: __ZNKSt3__116reverse_iteratorIPP7ToppingEdeB8ue170006Ev, symObjAddr: 0x2798, symBinAddr: 0x100005E54, symSize: 0x28 }
  - { offsetInCU: 0xC33D, offset: 0xC33D, size: 0x8, addend: 0x0, symName: __ZNSt3__116reverse_iteratorIPP7ToppingEppB8ue170006Ev, symObjAddr: 0x27C0, symBinAddr: 0x100005E7C, symSize: 0x20 }
  - { offsetInCU: 0xC362, offset: 0xC362, size: 0x8, addend: 0x0, symName: __ZNSt3__18_IterOpsINS_17_ClassicAlgPolicyEE25__validate_iter_referenceB8ue170006IRNS_16reverse_iteratorIPP7ToppingEEEEvv, symObjAddr: 0x27E0, symBinAddr: 0x100005E9C, symSize: 0x4 }
  - { offsetInCU: 0xC380, offset: 0xC380, size: 0x8, addend: 0x0, symName: __ZNSt3__118__unwrap_iter_implINS_16reverse_iteratorIPP7ToppingEELb0EE8__unwrapB8ue170006ES5_, symObjAddr: 0x27E4, symBinAddr: 0x100005EA0, symSize: 0x24 }
  - { offsetInCU: 0xC3A8, offset: 0xC3A8, size: 0x8, addend: 0x0, symName: __ZNSt3__14pairINS_16reverse_iteratorIPP7ToppingEES5_EC1B8ue170006IS5_S5_LPv0EEEOT_OT0_, symObjAddr: 0x2808, symBinAddr: 0x100005EC4, symSize: 0x3C }
  - { offsetInCU: 0xC405, offset: 0xC405, size: 0x8, addend: 0x0, symName: __ZNSt3__14pairINS_16reverse_iteratorIPP7ToppingEES5_EC2B8ue170006IS5_S5_LPv0EEEOT_OT0_, symObjAddr: 0x2844, symBinAddr: 0x100005F00, symSize: 0x34 }
  - { offsetInCU: 0xC462, offset: 0xC462, size: 0x8, addend: 0x0, symName: __ZNSt3__118__unwrap_iter_implINS_16reverse_iteratorIPP7ToppingEELb0EE8__rewrapB8ue170006ES5_S5_, symObjAddr: 0x2878, symBinAddr: 0x100005F34, symSize: 0x2C }
  - { offsetInCU: 0xC490, offset: 0xC490, size: 0x8, addend: 0x0, symName: __ZNSt3__116reverse_iteratorIPP7ToppingEC2B8ue170006ES3_, symObjAddr: 0x28A4, symBinAddr: 0x100005F60, symSize: 0x28 }
  - { offsetInCU: 0xC4C7, offset: 0xC4C7, size: 0x8, addend: 0x0, symName: __ZNSt3__114__split_bufferIP7ToppingRNS_9allocatorIS2_EEED2Ev, symObjAddr: 0x28CC, symBinAddr: 0x100005F88, symSize: 0x8C }
  - { offsetInCU: 0xC4F2, offset: 0xC4F2, size: 0x8, addend: 0x0, symName: __ZNSt3__114__split_bufferIP7ToppingRNS_9allocatorIS2_EEE5clearB8ue170006Ev, symObjAddr: 0x2958, symBinAddr: 0x100006014, symSize: 0x28 }
  - { offsetInCU: 0xC517, offset: 0xC517, size: 0x8, addend: 0x0, symName: __ZNKSt3__114__split_bufferIP7ToppingRNS_9allocatorIS2_EEE8capacityB8ue170006Ev, symObjAddr: 0x2980, symBinAddr: 0x10000603C, symSize: 0x40 }
  - { offsetInCU: 0xC53C, offset: 0xC53C, size: 0x8, addend: 0x0, symName: __ZNSt3__114__split_bufferIP7ToppingRNS_9allocatorIS2_EEE17__destruct_at_endB8ue170006EPS2_, symObjAddr: 0x29C0, symBinAddr: 0x10000607C, symSize: 0x2C }
  - { offsetInCU: 0xC56E, offset: 0xC56E, size: 0x8, addend: 0x0, symName: __ZNSt3__114__split_bufferIP7ToppingRNS_9allocatorIS2_EEE17__destruct_at_endB8ue170006EPS2_NS_17integral_constantIbLb0EEE, symObjAddr: 0x29EC, symBinAddr: 0x1000060A8, symSize: 0x80 }
  - { offsetInCU: 0xC5AE, offset: 0xC5AE, size: 0x8, addend: 0x0, symName: __ZNKSt3__114__split_bufferIP7ToppingRNS_9allocatorIS2_EEE9__end_capB8ue170006Ev, symObjAddr: 0x2A6C, symBinAddr: 0x100006128, symSize: 0x28 }
  - { offsetInCU: 0xC5D3, offset: 0xC5D3, size: 0x8, addend: 0x0, symName: __ZNKSt3__117__compressed_pairIPP7ToppingRNS_9allocatorIS2_EEE5firstB8ue170006Ev, symObjAddr: 0x2A94, symBinAddr: 0x100006150, symSize: 0x24 }
  - { offsetInCU: 0xC5F8, offset: 0xC5F8, size: 0x8, addend: 0x0, symName: __ZNSt3__111char_traitsIcE6lengthB8ue170006EPKc, symObjAddr: 0x2CA4, symBinAddr: 0x100006360, symSize: 0x34 }
  - { offsetInCU: 0xC639, offset: 0xC639, size: 0x8, addend: 0x0, symName: __ZNKSt3__113basic_ostreamIcNS_11char_traitsIcEEE6sentrycvbB8ue170006Ev, symObjAddr: 0x2CD8, symBinAddr: 0x100006394, symSize: 0x1C }
  - { offsetInCU: 0xC65E, offset: 0xC65E, size: 0x8, addend: 0x0, symName: __ZNSt3__119ostreambuf_iteratorIcNS_11char_traitsIcEEEC1B8ue170006ERNS_13basic_ostreamIcS2_EE, symObjAddr: 0x2F34, symBinAddr: 0x1000065F0, symSize: 0x34 }
  - { offsetInCU: 0xC695, offset: 0xC695, size: 0x8, addend: 0x0, symName: __ZNKSt3__18ios_base5flagsB8ue170006Ev, symObjAddr: 0x2F68, symBinAddr: 0x100006624, symSize: 0x18 }
  - { offsetInCU: 0xC6BB, offset: 0xC6BB, size: 0x8, addend: 0x0, symName: __ZNKSt3__19basic_iosIcNS_11char_traitsIcEEE4fillB8ue170006Ev, symObjAddr: 0x2F80, symBinAddr: 0x10000663C, symSize: 0x64 }
  - { offsetInCU: 0xC6E2, offset: 0xC6E2, size: 0x8, addend: 0x0, symName: __ZNKSt3__119ostreambuf_iteratorIcNS_11char_traitsIcEEE6failedB8ue170006Ev, symObjAddr: 0x2FE4, symBinAddr: 0x1000066A0, symSize: 0x24 }
  - { offsetInCU: 0xC707, offset: 0xC707, size: 0x8, addend: 0x0, symName: __ZNSt3__19basic_iosIcNS_11char_traitsIcEEE8setstateB8ue170006Ej, symObjAddr: 0x3008, symBinAddr: 0x1000066C4, symSize: 0x2C }
  - { offsetInCU: 0xC73B, offset: 0xC73B, size: 0x8, addend: 0x0, symName: __ZNKSt3__18ios_base5widthB8ue170006Ev, symObjAddr: 0x3034, symBinAddr: 0x1000066F0, symSize: 0x18 }
  - { offsetInCU: 0xC762, offset: 0xC762, size: 0x8, addend: 0x0, symName: __ZNSt3__115basic_streambufIcNS_11char_traitsIcEEE5sputnB8ue170006EPKcl, symObjAddr: 0x304C, symBinAddr: 0x100006708, symSize: 0x3C }
  - { offsetInCU: 0xC7A3, offset: 0xC7A3, size: 0x8, addend: 0x0, symName: __ZNSt3__112basic_stringIcNS_11char_traitsIcEENS_9allocatorIcEEEC1B8ue170006Emc, symObjAddr: 0x3088, symBinAddr: 0x100006744, symSize: 0x3C }
  - { offsetInCU: 0xC7EA, offset: 0xC7EA, size: 0x8, addend: 0x0, symName: __ZNKSt3__112basic_stringIcNS_11char_traitsIcEENS_9allocatorIcEEE4dataB8ue170006Ev, symObjAddr: 0x30C4, symBinAddr: 0x100006780, symSize: 0x28 }
  - { offsetInCU: 0xC80F, offset: 0xC80F, size: 0x8, addend: 0x0, symName: __ZNSt3__18ios_base5widthB8ue170006El, symObjAddr: 0x30EC, symBinAddr: 0x1000067A8, symSize: 0x2C }
  - { offsetInCU: 0xC854, offset: 0xC854, size: 0x8, addend: 0x0, symName: __ZNSt3__112basic_stringIcNS_11char_traitsIcEENS_9allocatorIcEEEC2B8ue170006Emc, symObjAddr: 0x3118, symBinAddr: 0x1000067D4, symSize: 0x4C }
  - { offsetInCU: 0xC89B, offset: 0xC89B, size: 0x8, addend: 0x0, symName: __ZNSt3__117__compressed_pairINS_12basic_stringIcNS_11char_traitsIcEENS_9allocatorIcEEE5__repES5_EC1B8ue170006INS_18__default_init_tagESA_EEOT_OT0_, symObjAddr: 0x3164, symBinAddr: 0x100006820, symSize: 0x3C }
  - { offsetInCU: 0xC8F2, offset: 0xC8F2, size: 0x8, addend: 0x0, symName: __ZNSt3__117__compressed_pairINS_12basic_stringIcNS_11char_traitsIcEENS_9allocatorIcEEE5__repES5_EC2B8ue170006INS_18__default_init_tagESA_EEOT_OT0_, symObjAddr: 0x31A0, symBinAddr: 0x10000685C, symSize: 0x3C }
  - { offsetInCU: 0xC949, offset: 0xC949, size: 0x8, addend: 0x0, symName: __ZNSt3__122__compressed_pair_elemINS_12basic_stringIcNS_11char_traitsIcEENS_9allocatorIcEEE5__repELi0ELb0EEC2B8ue170006ENS_18__default_init_tagE, symObjAddr: 0x31DC, symBinAddr: 0x100006898, symSize: 0x14 }
  - { offsetInCU: 0xC97D, offset: 0xC97D, size: 0x8, addend: 0x0, symName: __ZNSt3__122__compressed_pair_elemINS_9allocatorIcEELi1ELb1EEC2B8ue170006ENS_18__default_init_tagE, symObjAddr: 0x31F0, symBinAddr: 0x1000068AC, symSize: 0x2C }
  - { offsetInCU: 0xC9B1, offset: 0xC9B1, size: 0x8, addend: 0x0, symName: __ZNSt3__19allocatorIcEC2B8ue170006Ev, symObjAddr: 0x321C, symBinAddr: 0x1000068D8, symSize: 0x2C }
  - { offsetInCU: 0xC9DA, offset: 0xC9DA, size: 0x8, addend: 0x0, symName: __ZNSt3__116__non_trivial_ifILb1ENS_9allocatorIcEEEC2B8ue170006Ev, symObjAddr: 0x3248, symBinAddr: 0x100006904, symSize: 0x14 }
  - { offsetInCU: 0xCA03, offset: 0xCA03, size: 0x8, addend: 0x0, symName: __ZNKSt3__112basic_stringIcNS_11char_traitsIcEENS_9allocatorIcEEE13__get_pointerB8ue170006Ev, symObjAddr: 0x3270, symBinAddr: 0x10000692C, symSize: 0x54 }
  - { offsetInCU: 0xCA28, offset: 0xCA28, size: 0x8, addend: 0x0, symName: __ZNKSt3__112basic_stringIcNS_11char_traitsIcEENS_9allocatorIcEEE9__is_longB8ue170006Ev, symObjAddr: 0x32C4, symBinAddr: 0x100006980, symSize: 0x38 }
  - { offsetInCU: 0xCA4D, offset: 0xCA4D, size: 0x8, addend: 0x0, symName: __ZNKSt3__112basic_stringIcNS_11char_traitsIcEENS_9allocatorIcEEE18__get_long_pointerB8ue170006Ev, symObjAddr: 0x32FC, symBinAddr: 0x1000069B8, symSize: 0x28 }
  - { offsetInCU: 0xCA72, offset: 0xCA72, size: 0x8, addend: 0x0, symName: __ZNKSt3__112basic_stringIcNS_11char_traitsIcEENS_9allocatorIcEEE19__get_short_pointerB8ue170006Ev, symObjAddr: 0x3324, symBinAddr: 0x1000069E0, symSize: 0x28 }
  - { offsetInCU: 0xCA97, offset: 0xCA97, size: 0x8, addend: 0x0, symName: __ZNKSt3__117__compressed_pairINS_12basic_stringIcNS_11char_traitsIcEENS_9allocatorIcEEE5__repES5_E5firstB8ue170006Ev, symObjAddr: 0x334C, symBinAddr: 0x100006A08, symSize: 0x24 }
  - { offsetInCU: 0xCABC, offset: 0xCABC, size: 0x8, addend: 0x0, symName: __ZNKSt3__122__compressed_pair_elemINS_12basic_stringIcNS_11char_traitsIcEENS_9allocatorIcEEE5__repELi0ELb0EE5__getB8ue170006Ev, symObjAddr: 0x3370, symBinAddr: 0x100006A2C, symSize: 0x14 }
  - { offsetInCU: 0xCAE1, offset: 0xCAE1, size: 0x8, addend: 0x0, symName: __ZNSt3__114pointer_traitsIPKcE10pointer_toB8ue170006ERS1_, symObjAddr: 0x3384, symBinAddr: 0x100006A40, symSize: 0x14 }
  - { offsetInCU: 0xCB04, offset: 0xCB04, size: 0x8, addend: 0x0, symName: __ZNSt3__119ostreambuf_iteratorIcNS_11char_traitsIcEEEC2B8ue170006ERNS_13basic_ostreamIcS2_EE, symObjAddr: 0x3398, symBinAddr: 0x100006A54, symSize: 0x54 }
  - { offsetInCU: 0xCB3A, offset: 0xCB3A, size: 0x8, addend: 0x0, symName: __ZNKSt3__19basic_iosIcNS_11char_traitsIcEEE5rdbufB8ue170006Ev, symObjAddr: 0x33EC, symBinAddr: 0x100006AA8, symSize: 0x24 }
  - { offsetInCU: 0xCB61, offset: 0xCB61, size: 0x8, addend: 0x0, symName: __ZNKSt3__18ios_base5rdbufB8ue170006Ev, symObjAddr: 0x3410, symBinAddr: 0x100006ACC, symSize: 0x18 }
  - { offsetInCU: 0xCB86, offset: 0xCB86, size: 0x8, addend: 0x0, symName: __ZNSt3__111char_traitsIcE11eq_int_typeB8ue170006Eii, symObjAddr: 0x3428, symBinAddr: 0x100006AE4, symSize: 0x28 }
  - { offsetInCU: 0xCBB9, offset: 0xCBB9, size: 0x8, addend: 0x0, symName: __ZNSt3__111char_traitsIcE3eofB8ue170006Ev, symObjAddr: 0x3450, symBinAddr: 0x100006B0C, symSize: 0x8 }
  - { offsetInCU: 0xCBCC, offset: 0xCBCC, size: 0x8, addend: 0x0, symName: __ZNKSt3__19basic_iosIcNS_11char_traitsIcEEE5widenB8ue170006Ec, symObjAddr: 0x3458, symBinAddr: 0x100006B14, symSize: 0x84 }
  - { offsetInCU: 0xCC34, offset: 0xCC34, size: 0x8, addend: 0x0, symName: __ZNKSt3__15ctypeIcE5widenB8ue170006Ec, symObjAddr: 0x3508, symBinAddr: 0x100006BC4, symSize: 0x38 }
  - { offsetInCU: 0xCC67, offset: 0xCC67, size: 0x8, addend: 0x0, symName: __ZNSt3__18ios_base8setstateB8ue170006Ej, symObjAddr: 0x3540, symBinAddr: 0x100006BFC, symSize: 0x34 }
  - { offsetInCU: 0xCC9D, offset: 0xCC9D, size: 0x8, addend: 0x0, symName: __ZNSt3__112basic_stringIcNS_11char_traitsIcEENS_9allocatorIcEEEC2B8ue170006ILi0EEEPKc, symObjAddr: 0x3598, symBinAddr: 0x100006C54, symSize: 0x58 }
  - { offsetInCU: 0xCCDB, offset: 0xCCDB, size: 0x8, addend: 0x0, symName: __ZNKSt3__112basic_stringIcNS_11char_traitsIcEENS_9allocatorIcEEE4sizeB8ue170006Ev, symObjAddr: 0x35F0, symBinAddr: 0x100006CAC, symSize: 0x54 }
  - { offsetInCU: 0xCD00, offset: 0xCD00, size: 0x8, addend: 0x0, symName: __ZNSt3__111char_traitsIcE7compareB8ue170006EPKcS3_m, symObjAddr: 0x3644, symBinAddr: 0x100006D00, symSize: 0x34 }
  - { offsetInCU: 0xCD3F, offset: 0xCD3F, size: 0x8, addend: 0x0, symName: __ZNKSt3__112basic_stringIcNS_11char_traitsIcEENS_9allocatorIcEEE15__get_long_sizeB8ue170006Ev, symObjAddr: 0x3678, symBinAddr: 0x100006D34, symSize: 0x28 }
  - { offsetInCU: 0xCD64, offset: 0xCD64, size: 0x8, addend: 0x0, symName: __ZNKSt3__112basic_stringIcNS_11char_traitsIcEENS_9allocatorIcEEE16__get_short_sizeB8ue170006Ev, symObjAddr: 0x36A0, symBinAddr: 0x100006D5C, symSize: 0x34 }
  - { offsetInCU: 0xCD89, offset: 0xCD89, size: 0x8, addend: 0x0, symName: __ZNSt3__16vectorIP7ToppingNS_9allocatorIS2_EEE11__make_iterB8ue170006EPS2_, symObjAddr: 0x36D4, symBinAddr: 0x100006D90, symSize: 0x30 }
  - { offsetInCU: 0xCDBD, offset: 0xCDBD, size: 0x8, addend: 0x0, symName: __ZNSt3__111__wrap_iterIPP7ToppingEC1B8ue170006ES3_, symObjAddr: 0x3704, symBinAddr: 0x100006DC0, symSize: 0x34 }
  - { offsetInCU: 0xCDF4, offset: 0xCDF4, size: 0x8, addend: 0x0, symName: __ZNSt3__111__wrap_iterIPP7ToppingEC2B8ue170006ES3_, symObjAddr: 0x3738, symBinAddr: 0x100006DF4, symSize: 0x20 }
  - { offsetInCU: 0xCE2B, offset: 0xCE2B, size: 0x8, addend: 0x0, symName: __ZNSt3__111__wrap_iterIPP7ToppingEpLB8ue170006El, symObjAddr: 0x3758, symBinAddr: 0x100006E14, symSize: 0x28 }
  - { offsetInCU: 0xCE5E, offset: 0xCE5E, size: 0x8, addend: 0x0, symName: __ZNKSt3__16vectorIP7ToppingNS_9allocatorIS2_EEE6cbeginB8ue170006Ev, symObjAddr: 0x37C8, symBinAddr: 0x100006E84, symSize: 0x2C }
  - { offsetInCU: 0xCE83, offset: 0xCE83, size: 0x8, addend: 0x0, symName: __ZNSt3__16vectorIP7ToppingNS_9allocatorIS2_EEE17__destruct_at_endB8ue170006EPS2_, symObjAddr: 0x37F4, symBinAddr: 0x100006EB0, symSize: 0x4C }
  - { offsetInCU: 0xCEC6, offset: 0xCEC6, size: 0x8, addend: 0x0, symName: __ZNKSt3__111__wrap_iterIPKP7ToppingE4baseB8ue170006Ev, symObjAddr: 0x3880, symBinAddr: 0x100006F3C, symSize: 0x18 }
  - { offsetInCU: 0xCEEA, offset: 0xCEEA, size: 0x8, addend: 0x0, symName: __ZNKSt3__16vectorIP7ToppingNS_9allocatorIS2_EEE5beginB8ue170006Ev, symObjAddr: 0x3898, symBinAddr: 0x100006F54, symSize: 0x30 }
  - { offsetInCU: 0xCF11, offset: 0xCF11, size: 0x8, addend: 0x0, symName: __ZNKSt3__16vectorIP7ToppingNS_9allocatorIS2_EEE11__make_iterB8ue170006EPKS2_, symObjAddr: 0x38C8, symBinAddr: 0x100006F84, symSize: 0x30 }
  - { offsetInCU: 0xCF45, offset: 0xCF45, size: 0x8, addend: 0x0, symName: __ZNSt3__111__wrap_iterIPKP7ToppingEC1B8ue170006ES4_, symObjAddr: 0x38F8, symBinAddr: 0x100006FB4, symSize: 0x34 }
  - { offsetInCU: 0xCF7C, offset: 0xCF7C, size: 0x8, addend: 0x0, symName: __ZNSt3__111__wrap_iterIPKP7ToppingEC2B8ue170006ES4_, symObjAddr: 0x392C, symBinAddr: 0x100006FE8, symSize: 0x20 }
  - { offsetInCU: 0xCFB3, offset: 0xCFB3, size: 0x8, addend: 0x0, symName: __ZNKSt3__16vectorIP7ToppingNS_9allocatorIS2_EEE17__annotate_shrinkB8ue170006Em, symObjAddr: 0x394C, symBinAddr: 0x100007008, symSize: 0xB4 }
  - { offsetInCU: 0xD00A, offset: 0xD00A, size: 0x8, addend: 0x0, symName: __ZNKSt3__114__move_trivialclB8ue170006IP7ToppingS3_Li0EEENS_4pairIPT_PT0_EES6_S6_S8_, symObjAddr: 0x3B9C, symBinAddr: 0x100007258, symSize: 0x48 }
  - { offsetInCU: 0xD076, offset: 0xD076, size: 0x8, addend: 0x0, symName: __ZNSt3__14pairIPP7ToppingS3_EC1B8ue170006IRS3_S3_LPv0EEEOT_OT0_, symObjAddr: 0x3DC4, symBinAddr: 0x100007480, symSize: 0x3C }
  - { offsetInCU: 0xD0D3, offset: 0xD0D3, size: 0x8, addend: 0x0, symName: __ZNSt3__14pairIPP7ToppingS3_EC2B8ue170006IRS3_S3_LPv0EEEOT_OT0_, symObjAddr: 0x3E00, symBinAddr: 0x1000074BC, symSize: 0x34 }
  - { offsetInCU: 0xD130, offset: 0xD130, size: 0x8, addend: 0x0, symName: __ZNSt3__118__unwrap_iter_implIPP7ToppingLb1EE8__unwrapB8ue170006ES3_, symObjAddr: 0x3E34, symBinAddr: 0x1000074F0, symSize: 0x24 }
  - { offsetInCU: 0xD153, offset: 0xD153, size: 0x8, addend: 0x0, symName: __ZNSt3__14pairIPP7ToppingS3_EC1B8ue170006IS3_S3_LPv0EEEOT_OT0_, symObjAddr: 0x3E58, symBinAddr: 0x100007514, symSize: 0x3C }
  - { offsetInCU: 0xD1B0, offset: 0xD1B0, size: 0x8, addend: 0x0, symName: __ZNSt3__14pairIPP7ToppingS3_EC2B8ue170006IS3_S3_LPv0EEEOT_OT0_, symObjAddr: 0x3E94, symBinAddr: 0x100007550, symSize: 0x34 }
  - { offsetInCU: 0xD20D, offset: 0xD20D, size: 0x8, addend: 0x0, symName: __ZNSt3__118__unwrap_iter_implIPP7ToppingLb1EE8__rewrapB8ue170006ES3_S3_, symObjAddr: 0x3EC8, symBinAddr: 0x100007584, symSize: 0x50 }
  - { offsetInCU: 0xD23E, offset: 0xD23E, size: 0x8, addend: 0x0, symName: __ZNSt3__111__wrap_iterIPKP7ToppingEC2B8ue170006IPS2_EERKNS0_IT_EEPNS_9enable_ifIXsr14is_convertibleIS8_S4_EE5valueEvE4typeE, symObjAddr: 0x3F18, symBinAddr: 0x1000075D4, symSize: 0x40 }
  - { offsetInCU: 0x5ED5, offset: 0x1323E, size: 0x8, addend: 0x0, symName: __ZN11PlayerPizzaC2Ev, symObjAddr: 0x0, symBinAddr: 0x100007614, symSize: 0x60 }
  - { offsetInCU: 0x5F00, offset: 0x13269, size: 0x8, addend: 0x0, symName: __ZN11PlayerPizzaC1Ev, symObjAddr: 0x60, symBinAddr: 0x100007674, symSize: 0x2C }
  - { offsetInCU: 0x5F2B, offset: 0x13294, size: 0x8, addend: 0x0, symName: __ZN11PlayerPizza16setOvenStartTimeEv, symObjAddr: 0x8C, symBinAddr: 0x1000076A0, symSize: 0x34 }
  - { offsetInCU: 0x5F52, offset: 0x132BB, size: 0x8, addend: 0x0, symName: __ZN11PlayerPizza15setOvenDurationEv, symObjAddr: 0xC0, symBinAddr: 0x1000076D4, symSize: 0x44 }
  - { offsetInCU: 0x5F87, offset: 0x132F0, size: 0x8, addend: 0x0, symName: __ZN11PlayerPizza15getOvenDurationEv, symObjAddr: 0x104, symBinAddr: 0x100007718, symSize: 0x18 }
  - { offsetInCU: 0x5FAE, offset: 0x13317, size: 0x8, addend: 0x0, symName: __ZN11PlayerPizza8getIsCutEv, symObjAddr: 0x11C, symBinAddr: 0x100007730, symSize: 0x1C }
  - { offsetInCU: 0x5FD5, offset: 0x1333E, size: 0x8, addend: 0x0, symName: __ZN11PlayerPizza10getIsBakedEv, symObjAddr: 0x138, symBinAddr: 0x10000774C, symSize: 0x1C }
  - { offsetInCU: 0x5FFC, offset: 0x13365, size: 0x8, addend: 0x0, symName: __ZN11PlayerPizza11getIsToppedEv, symObjAddr: 0x154, symBinAddr: 0x100007768, symSize: 0x1C }
  - { offsetInCU: 0x6023, offset: 0x1338C, size: 0x8, addend: 0x0, symName: __ZN11PlayerPizza12getTotalTipsEv, symObjAddr: 0x170, symBinAddr: 0x100007784, symSize: 0x18 }
  - { offsetInCU: 0x604A, offset: 0x133B3, size: 0x8, addend: 0x0, symName: __ZN11PlayerPizza12setTotalTipsEf, symObjAddr: 0x188, symBinAddr: 0x10000779C, symSize: 0x20 }
  - { offsetInCU: 0x607F, offset: 0x133E8, size: 0x8, addend: 0x0, symName: __ZN11PlayerPizza8setIsCutEb, symObjAddr: 0x1A8, symBinAddr: 0x1000077BC, symSize: 0x2C }
  - { offsetInCU: 0x60B3, offset: 0x1341C, size: 0x8, addend: 0x0, symName: __ZN11PlayerPizza10setIsBakedEb, symObjAddr: 0x1D4, symBinAddr: 0x1000077E8, symSize: 0x2C }
  - { offsetInCU: 0x60E8, offset: 0x13451, size: 0x8, addend: 0x0, symName: __ZN11PlayerPizza11setIsToppedEb, symObjAddr: 0x200, symBinAddr: 0x100007814, symSize: 0x2C }
  - { offsetInCU: 0x611D, offset: 0x13486, size: 0x8, addend: 0x0, symName: __ZN11PlayerPizza15updateTotalTipsEff, symObjAddr: 0x22C, symBinAddr: 0x100007840, symSize: 0x34 }
  - { offsetInCU: 0x6160, offset: 0x134C9, size: 0x8, addend: 0x0, symName: __ZN11PlayerPizza10setNumCutsEi, symObjAddr: 0x260, symBinAddr: 0x100007874, symSize: 0x20 }
  - { offsetInCU: 0x6195, offset: 0x134FE, size: 0x8, addend: 0x0, symName: __ZN11PlayerPizza10getNumCutsEv, symObjAddr: 0x280, symBinAddr: 0x100007894, symSize: 0x18 }
  - { offsetInCU: 0x61BC, offset: 0x13525, size: 0x8, addend: 0x0, symName: __ZN11PlayerPizza5resetEv, symObjAddr: 0x298, symBinAddr: 0x1000078AC, symSize: 0x54 }
  - { offsetInCU: 0x61E3, offset: 0x1354C, size: 0x8, addend: 0x0, symName: __ZNSt3__16vectorIP7ToppingNS_9allocatorIS2_EEE13shrink_to_fitEv, symObjAddr: 0x330, symBinAddr: 0x100007900, symSize: 0xF0 }
  - { offsetInCU: 0x48EC, offset: 0x17E96, size: 0x8, addend: 0x0, symName: __ZN7ToppingC2Ev, symObjAddr: 0x0, symBinAddr: 0x1000079F0, symSize: 0xB0 }
  - { offsetInCU: 0x491C, offset: 0x17EC6, size: 0x8, addend: 0x0, symName: __ZN7ToppingC2ENSt3__112basic_stringIcNS0_11char_traitsIcEENS0_9allocatorIcEEEEi, symObjAddr: 0x1B0, symBinAddr: 0x100007AA0, symSize: 0x94 }
  - { offsetInCU: 0x4964, offset: 0x17F0E, size: 0x8, addend: 0x0, symName: __ZNSt3__112basic_stringIcNS_11char_traitsIcEENS_9allocatorIcEEEC1B8ue170006Ev, symObjAddr: 0x244, symBinAddr: 0x100007B34, symSize: 0x2C }
  - { offsetInCU: 0x498D, offset: 0x17F37, size: 0x8, addend: 0x0, symName: __ZN7Topping13getNumToppingEv, symObjAddr: 0x270, symBinAddr: 0x100007B60, symSize: 0x18 }
  - { offsetInCU: 0x49B3, offset: 0x17F5D, size: 0x8, addend: 0x0, symName: __ZN7Topping13setNumToppingEi, symObjAddr: 0x288, symBinAddr: 0x100007B78, symSize: 0x20 }
  - { offsetInCU: 0x49E8, offset: 0x17F92, size: 0x8, addend: 0x0, symName: __ZN7Topping21getNumToppingIncreaseEv, symObjAddr: 0x2A8, symBinAddr: 0x100007B98, symSize: 0x18 }
  - { offsetInCU: 0x4A0F, offset: 0x17FB9, size: 0x8, addend: 0x0, symName: __ZN7Topping21setNumToppingIncreaseEi, symObjAddr: 0x2C0, symBinAddr: 0x100007BB0, symSize: 0x20 }
  - { offsetInCU: 0x4A44, offset: 0x17FEE, size: 0x8, addend: 0x0, symName: __ZN7Topping14getToppingTypeEv, symObjAddr: 0x2E0, symBinAddr: 0x100007BD0, symSize: 0x3C }
  - { offsetInCU: 0x4A6B, offset: 0x18015, size: 0x8, addend: 0x0, symName: __ZN7Topping14setToppingTypeENSt3__112basic_stringIcNS0_11char_traitsIcEENS0_9allocatorIcEEEE, symObjAddr: 0x31C, symBinAddr: 0x100007C0C, symSize: 0x30 }
  - { offsetInCU: 0x4AA1, offset: 0x1804B, size: 0x8, addend: 0x0, symName: __ZN7ToppingD2Ev, symObjAddr: 0x34C, symBinAddr: 0x100007C3C, symSize: 0x40 }
  - { offsetInCU: 0x4ACC, offset: 0x18076, size: 0x8, addend: 0x0, symName: __ZN7ToppingD1Ev, symObjAddr: 0x38C, symBinAddr: 0x100007C7C, symSize: 0x14 }
  - { offsetInCU: 0x4AF7, offset: 0x180A1, size: 0x8, addend: 0x0, symName: __ZN7ToppingD0Ev, symObjAddr: 0x3A0, symBinAddr: 0x100007C90, symSize: 0xC }
  - { offsetInCU: 0x4B22, offset: 0x180CC, size: 0x8, addend: 0x0, symName: __ZNSt3__112basic_stringIcNS_11char_traitsIcEENS_9allocatorIcEEEC2B8ue170006Ev, symObjAddr: 0xEF0, symBinAddr: 0x100007C9C, symSize: 0x48 }
  - { offsetInCU: 0x4B4B, offset: 0x180F5, size: 0x8, addend: 0x0, symName: __ZNSt3__112basic_stringIcNS_11char_traitsIcEENS_9allocatorIcEEE14__default_initB8ue170006Ev, symObjAddr: 0xF38, symBinAddr: 0x100007CE4, symSize: 0x40 }
  - { offsetInCU: 0x4B70, offset: 0x1811A, size: 0x8, addend: 0x0, symName: __ZNSt3__117__compressed_pairINS_12basic_stringIcNS_11char_traitsIcEENS_9allocatorIcEEE5__repES5_E5firstB8ue170006Ev, symObjAddr: 0xF78, symBinAddr: 0x100007D24, symSize: 0x24 }
  - { offsetInCU: 0x4B95, offset: 0x1813F, size: 0x8, addend: 0x0, symName: __ZNSt3__122__compressed_pair_elemINS_12basic_stringIcNS_11char_traitsIcEENS_9allocatorIcEEE5__repELi0ELb0EE5__getB8ue170006Ev, symObjAddr: 0xF9C, symBinAddr: 0x100007D48, symSize: 0x14 }
  - { offsetInCU: 0x4924, offset: 0x1CA92, size: 0x8, addend: 0x0, symName: __ZN4MeatC2ENSt3__112basic_stringIcNS0_11char_traitsIcEENS0_9allocatorIcEEEE, symObjAddr: 0x0, symBinAddr: 0x100007D5C, symSize: 0x90 }
  - { offsetInCU: 0x495E, offset: 0x1CACC, size: 0x8, addend: 0x0, symName: __ZN4MeatC1ENSt3__112basic_stringIcNS0_11char_traitsIcEENS0_9allocatorIcEEEE, symObjAddr: 0x90, symBinAddr: 0x100007DEC, symSize: 0x34 }
  - { offsetInCU: 0x4998, offset: 0x1CB06, size: 0x8, addend: 0x0, symName: __ZN4Meat13renderToppingEv, symObjAddr: 0xC4, symBinAddr: 0x100007E20, symSize: 0x3C }
  - { offsetInCU: 0x49BF, offset: 0x1CB2D, size: 0x8, addend: 0x0, symName: __ZN4MeatD1Ev, symObjAddr: 0x1CC, symBinAddr: 0x100007E5C, symSize: 0x2C }
  - { offsetInCU: 0x49EA, offset: 0x1CB58, size: 0x8, addend: 0x0, symName: __ZN4MeatD0Ev, symObjAddr: 0x1F8, symBinAddr: 0x100007E88, symSize: 0x30 }
  - { offsetInCU: 0x4A15, offset: 0x1CB83, size: 0x8, addend: 0x0, symName: __ZN4MeatD2Ev, symObjAddr: 0x228, symBinAddr: 0x100007EB8, symSize: 0x2C }
  - { offsetInCU: 0x4924, offset: 0x214D7, size: 0x8, addend: 0x0, symName: __ZN10FruitOrVegC2ENSt3__112basic_stringIcNS0_11char_traitsIcEENS0_9allocatorIcEEEE, symObjAddr: 0x0, symBinAddr: 0x100007EE4, symSize: 0x90 }
  - { offsetInCU: 0x495E, offset: 0x21511, size: 0x8, addend: 0x0, symName: __ZN10FruitOrVegC1ENSt3__112basic_stringIcNS0_11char_traitsIcEENS0_9allocatorIcEEEE, symObjAddr: 0x90, symBinAddr: 0x100007F74, symSize: 0x34 }
  - { offsetInCU: 0x4998, offset: 0x2154B, size: 0x8, addend: 0x0, symName: __ZN10FruitOrVeg13renderToppingEv, symObjAddr: 0xC4, symBinAddr: 0x100007FA8, symSize: 0x3C }
  - { offsetInCU: 0x49BF, offset: 0x21572, size: 0x8, addend: 0x0, symName: __ZN10FruitOrVegD1Ev, symObjAddr: 0x1CC, symBinAddr: 0x100007FE4, symSize: 0x2C }
  - { offsetInCU: 0x49EA, offset: 0x2159D, size: 0x8, addend: 0x0, symName: __ZN10FruitOrVegD0Ev, symObjAddr: 0x1F8, symBinAddr: 0x100008010, symSize: 0x30 }
  - { offsetInCU: 0x4A15, offset: 0x215C8, size: 0x8, addend: 0x0, symName: __ZN10FruitOrVegD2Ev, symObjAddr: 0x228, symBinAddr: 0x100008040, symSize: 0x2C }
  - { offsetInCU: 0x4939, offset: 0x25F31, size: 0x8, addend: 0x0, symName: __ZN9PepperoniC2Ev, symObjAddr: 0x0, symBinAddr: 0x10000806C, symSize: 0x8C }
  - { offsetInCU: 0x4969, offset: 0x25F61, size: 0x8, addend: 0x0, symName: __ZN9PepperoniC1Ev, symObjAddr: 0xC0, symBinAddr: 0x1000080F8, symSize: 0x2C }
  - { offsetInCU: 0x4994, offset: 0x25F8C, size: 0x8, addend: 0x0, symName: __ZN9Pepperoni13renderToppingEv, symObjAddr: 0xEC, symBinAddr: 0x100008124, symSize: 0x3C }
  - { offsetInCU: 0x49BB, offset: 0x25FB3, size: 0x8, addend: 0x0, symName: __ZN9PepperoniD1Ev, symObjAddr: 0x1F4, symBinAddr: 0x100008160, symSize: 0x2C }
  - { offsetInCU: 0x49E6, offset: 0x25FDE, size: 0x8, addend: 0x0, symName: __ZN9PepperoniD0Ev, symObjAddr: 0x220, symBinAddr: 0x10000818C, symSize: 0x30 }
  - { offsetInCU: 0x4A11, offset: 0x26009, size: 0x8, addend: 0x0, symName: __ZN9PepperoniD2Ev, symObjAddr: 0x250, symBinAddr: 0x1000081BC, symSize: 0x2C }
  - { offsetInCU: 0x4939, offset: 0x2A972, size: 0x8, addend: 0x0, symName: __ZN7ChickenC2Ev, symObjAddr: 0x0, symBinAddr: 0x1000081E8, symSize: 0x8C }
  - { offsetInCU: 0x4969, offset: 0x2A9A2, size: 0x8, addend: 0x0, symName: __ZN7ChickenC1Ev, symObjAddr: 0xC0, symBinAddr: 0x100008274, symSize: 0x2C }
  - { offsetInCU: 0x4994, offset: 0x2A9CD, size: 0x8, addend: 0x0, symName: __ZN7Chicken13renderToppingEv, symObjAddr: 0xEC, symBinAddr: 0x1000082A0, symSize: 0x3C }
  - { offsetInCU: 0x49BB, offset: 0x2A9F4, size: 0x8, addend: 0x0, symName: __ZN7ChickenD1Ev, symObjAddr: 0x1F4, symBinAddr: 0x1000082DC, symSize: 0x2C }
  - { offsetInCU: 0x49E6, offset: 0x2AA1F, size: 0x8, addend: 0x0, symName: __ZN7ChickenD0Ev, symObjAddr: 0x220, symBinAddr: 0x100008308, symSize: 0x30 }
  - { offsetInCU: 0x4A11, offset: 0x2AA4A, size: 0x8, addend: 0x0, symName: __ZN7ChickenD2Ev, symObjAddr: 0x250, symBinAddr: 0x100008338, symSize: 0x2C }
  - { offsetInCU: 0x4939, offset: 0x2F3B3, size: 0x8, addend: 0x0, symName: __ZN9PineappleC2Ev, symObjAddr: 0x0, symBinAddr: 0x100008364, symSize: 0x8C }
  - { offsetInCU: 0x4969, offset: 0x2F3E3, size: 0x8, addend: 0x0, symName: __ZN9PineappleC1Ev, symObjAddr: 0xC0, symBinAddr: 0x1000083F0, symSize: 0x2C }
  - { offsetInCU: 0x4994, offset: 0x2F40E, size: 0x8, addend: 0x0, symName: __ZN9Pineapple13renderToppingEv, symObjAddr: 0xEC, symBinAddr: 0x10000841C, symSize: 0x3C }
  - { offsetInCU: 0x49BB, offset: 0x2F435, size: 0x8, addend: 0x0, symName: __ZN9PineappleD1Ev, symObjAddr: 0x1F4, symBinAddr: 0x100008458, symSize: 0x2C }
  - { offsetInCU: 0x49E6, offset: 0x2F460, size: 0x8, addend: 0x0, symName: __ZN9PineappleD0Ev, symObjAddr: 0x220, symBinAddr: 0x100008484, symSize: 0x30 }
  - { offsetInCU: 0x4A11, offset: 0x2F48B, size: 0x8, addend: 0x0, symName: __ZN9PineappleD2Ev, symObjAddr: 0x250, symBinAddr: 0x1000084B4, symSize: 0x2C }
  - { offsetInCU: 0x4939, offset: 0x33DF4, size: 0x8, addend: 0x0, symName: __ZN5OliveC2Ev, symObjAddr: 0x0, symBinAddr: 0x1000084E0, symSize: 0x8C }
  - { offsetInCU: 0x4969, offset: 0x33E24, size: 0x8, addend: 0x0, symName: __ZN5OliveC1Ev, symObjAddr: 0xC0, symBinAddr: 0x10000856C, symSize: 0x2C }
  - { offsetInCU: 0x4994, offset: 0x33E4F, size: 0x8, addend: 0x0, symName: __ZN5Olive13renderToppingEv, symObjAddr: 0xEC, symBinAddr: 0x100008598, symSize: 0x3C }
  - { offsetInCU: 0x49BB, offset: 0x33E76, size: 0x8, addend: 0x0, symName: __ZN5OliveD1Ev, symObjAddr: 0x1F4, symBinAddr: 0x1000085D4, symSize: 0x2C }
  - { offsetInCU: 0x49E6, offset: 0x33EA1, size: 0x8, addend: 0x0, symName: __ZN5OliveD0Ev, symObjAddr: 0x220, symBinAddr: 0x100008600, symSize: 0x30 }
  - { offsetInCU: 0x4A11, offset: 0x33ECC, size: 0x8, addend: 0x0, symName: __ZN5OliveD2Ev, symObjAddr: 0x250, symBinAddr: 0x100008630, symSize: 0x2C }
  - { offsetInCU: 0x26EF, offset: 0x365EB, size: 0x8, addend: 0x0, symName: __ZNSt3__16chronogtB8ue170006IxNS_5ratioILl1ELl1000EEExS3_EEbRKNS0_8durationIT_T0_EERKNS4_IT1_T2_EE, symObjAddr: 0x3A60, symBinAddr: 0x10000B1D4, symSize: 0x30 }
  - { offsetInCU: 0x2750, offset: 0x3664C, size: 0x8, addend: 0x0, symName: __ZNSt3__16chronoltB8ue170006IxNS_5ratioILl1ELl1000EEEeNS2_ILl1ELl1EEEEEbRKNS0_8durationIT_T0_EERKNS5_IT1_T2_EE, symObjAddr: 0x3ACC, symBinAddr: 0x10000B240, symSize: 0x34 }
  - { offsetInCU: 0x27B1, offset: 0x366AD, size: 0x8, addend: 0x0, symName: __ZNSt3__16chrono13duration_castB8ue170006INS0_8durationIxNS_5ratioILl1ELl1000000000EEEEExNS3_ILl1ELl1000EEEEENS_9enable_ifIXsr13__is_durationIT_EE5valueES8_E4typeERKNS2_IT0_T1_EE, symObjAddr: 0x3B00, symBinAddr: 0x10000B274, symSize: 0x30 }
  - { offsetInCU: 0x27F8, offset: 0x366F4, size: 0x8, addend: 0x0, symName: __ZNSt3__16chronoltB8ue170006IxNS_5ratioILl1ELl1000000000EEExNS2_ILl1ELl1000EEEEEbRKNS0_8durationIT_T0_EERKNS5_IT1_T2_EE, symObjAddr: 0x3B30, symBinAddr: 0x10000B2A4, symSize: 0x34 }
  - { offsetInCU: 0x2859, offset: 0x36755, size: 0x8, addend: 0x0, symName: __ZNSt3__16chronoltB8ue170006IxNS_5ratioILl1ELl1000EEExS3_EEbRKNS0_8durationIT_T0_EERKNS4_IT1_T2_EE, symObjAddr: 0x3BC0, symBinAddr: 0x10000B334, symSize: 0x34 }
  - { offsetInCU: 0x2937, offset: 0x36833, size: 0x8, addend: 0x0, symName: __ZNSt3__16chrono13duration_castB8ue170006INS0_8durationIeNS_5ratioILl1ELl1000EEEEExS4_EENS_9enable_ifIXsr13__is_durationIT_EE5valueES7_E4typeERKNS2_IT0_T1_EE, symObjAddr: 0x3E14, symBinAddr: 0x10000B588, symSize: 0x30 }
  - { offsetInCU: 0x29C9, offset: 0x368C5, size: 0x8, addend: 0x0, symName: __ZNSt3__16chrono13duration_castB8ue170006INS0_8durationIeNS_5ratioILl1ELl1000EEEEEeNS3_ILl1ELl1EEEEENS_9enable_ifIXsr13__is_durationIT_EE5valueES8_E4typeERKNS2_IT0_T1_EE, symObjAddr: 0x3F34, symBinAddr: 0x10000B6A8, symSize: 0x30 }
  - { offsetInCU: 0x3AB1, offset: 0x379AD, size: 0x8, addend: 0x0, symName: __ZNSt3__17advanceB8ue170006IPKillvEEvRT_T0_, symObjAddr: 0x1490, symBinAddr: 0x100009A14, symSize: 0x38 }
  - { offsetInCU: 0x3B3D, offset: 0x37A39, size: 0x8, addend: 0x0, symName: __ZNSt3__17advanceB8ue170006IPillvEEvRT_T0_, symObjAddr: 0x2A40, symBinAddr: 0x10000AC94, symSize: 0x38 }
  - { offsetInCU: 0x571F, offset: 0x3961B, size: 0x8, addend: 0x0, symName: __ZNSt3__111this_thread9sleep_forB8ue170006IxNS_5ratioILl1ELl1000EEEEEvRKNS_6chrono8durationIT_T0_EE, symObjAddr: 0xBA4, symBinAddr: 0x100009134, symSize: 0xBC }
  - { offsetInCU: 0x5786, offset: 0x39682, size: 0x8, addend: 0x0, symName: __ZNSt3__18distanceB8ue170006IPKiEENS_15iterator_traitsIT_E15difference_typeES4_S4_, symObjAddr: 0x1018, symBinAddr: 0x10000959C, symSize: 0x2C }
  - { offsetInCU: 0x57C9, offset: 0x396C5, size: 0x8, addend: 0x0, symName: __ZNSt3__14nextB8ue170006IPKiEENS_9enable_ifIXsr29__has_input_iterator_categoryIT_EE5valueES4_E4typeES4_NS_15iterator_traitsIS4_E15difference_typeE, symObjAddr: 0x10AC, symBinAddr: 0x100009630, symSize: 0x34 }
  - { offsetInCU: 0x580C, offset: 0x39708, size: 0x8, addend: 0x0, symName: __ZNSt3__14copyB8ue170006IPKiPiEET0_T_S5_S4_, symObjAddr: 0x10E0, symBinAddr: 0x100009664, symSize: 0x40 }
  - { offsetInCU: 0x5866, offset: 0x39762, size: 0x8, addend: 0x0, symName: __ZNSt3__16__copyB8ue170006INS_17_ClassicAlgPolicyEPKiS3_PiEENS_4pairIT0_T2_EES6_T1_S7_, symObjAddr: 0x11AC, symBinAddr: 0x100009730, symSize: 0x44 }
  - { offsetInCU: 0x58D2, offset: 0x397CE, size: 0x8, addend: 0x0, symName: __ZNSt3__121__convert_to_integralB8ue170006El, symObjAddr: 0x14C8, symBinAddr: 0x100009A4C, symSize: 0x14 }
  - { offsetInCU: 0x58FE, offset: 0x397FA, size: 0x8, addend: 0x0, symName: __ZNSt3__19__advanceB8ue170006IPKiEEvRT_NS_15iterator_traitsIS3_E15difference_typeENS_26random_access_iterator_tagE, symObjAddr: 0x14DC, symBinAddr: 0x100009A60, symSize: 0x28 }
  - { offsetInCU: 0x5949, offset: 0x39845, size: 0x8, addend: 0x0, symName: __ZNSt3__130__uninitialized_allocator_copyB8ue170006INS_9allocatorIiEEPKiS4_PiEET2_RT_T0_T1_S6_, symObjAddr: 0x1540, symBinAddr: 0x100009AC4, symSize: 0x80 }
  - { offsetInCU: 0x59E6, offset: 0x398E2, size: 0x8, addend: 0x0, symName: __ZNSt3__114__unwrap_rangeB8ue170006IPKiS2_EENS_4pairIT0_S4_EET_S6_, symObjAddr: 0x1658, symBinAddr: 0x100009BDC, symSize: 0x60 }
  - { offsetInCU: 0x5A32, offset: 0x3992E, size: 0x8, addend: 0x0, symName: __ZNSt3__135__uninitialized_allocator_copy_implB8ue170006INS_9allocatorIiEEKiiiLPv0EEEPT2_RT_PT0_SA_S6_, symObjAddr: 0x16B8, symBinAddr: 0x100009C3C, symSize: 0x38 }
  - { offsetInCU: 0x5AB3, offset: 0x399AF, size: 0x8, addend: 0x0, symName: __ZNSt3__113__unwrap_iterB8ue170006IPiNS_18__unwrap_iter_implIS1_Lb1EEELi0EEEDTclsrT0_8__unwrapclsr3stdE7declvalIT_EEEES5_, symObjAddr: 0x16F0, symBinAddr: 0x100009C74, symSize: 0x24 }
  - { offsetInCU: 0x5AF7, offset: 0x399F3, size: 0x8, addend: 0x0, symName: __ZNSt3__113__rewrap_iterB8ue170006IPiS1_NS_18__unwrap_iter_implIS1_Lb1EEEEET_S4_T0_, symObjAddr: 0x1714, symBinAddr: 0x100009C98, symSize: 0x3C }
  - { offsetInCU: 0x5B4C, offset: 0x39A48, size: 0x8, addend: 0x0, symName: __ZNSt3__19make_pairB8ue170006IPKiS2_EENS_4pairINS_18__unwrap_ref_decayIT_E4typeENS4_IT0_E4typeEEEOS5_OS8_, symObjAddr: 0x1750, symBinAddr: 0x100009CD4, symSize: 0x38 }
  - { offsetInCU: 0x5B9B, offset: 0x39A97, size: 0x8, addend: 0x0, symName: __ZNSt3__113__unwrap_iterB8ue170006IPKiNS_18__unwrap_iter_implIS2_Lb1EEELi0EEEDTclsrT0_8__unwrapclsr3stdE7declvalIT_EEEES6_, symObjAddr: 0x1788, symBinAddr: 0x100009D0C, symSize: 0x24 }
  - { offsetInCU: 0x5D06, offset: 0x39C02, size: 0x8, addend: 0x0, symName: __ZNSt3__112__to_addressB8ue170006IKiEEPT_S3_, symObjAddr: 0x1840, symBinAddr: 0x100009DC4, symSize: 0x14 }
  - { offsetInCU: 0x5D8E, offset: 0x39C8A, size: 0x8, addend: 0x0, symName: __ZNSt3__112__to_addressB8ue170006IiEEPT_S2_, symObjAddr: 0x1878, symBinAddr: 0x100009DFC, symSize: 0x14 }
  - { offsetInCU: 0x5DC3, offset: 0x39CBF, size: 0x8, addend: 0x0, symName: __ZNSt3__123__dispatch_copy_or_moveB8ue170006INS_17_ClassicAlgPolicyENS_11__copy_loopIS1_EENS_14__copy_trivialEPKiS6_PiEENS_4pairIT2_T4_EES9_T3_SA_, symObjAddr: 0x1934, symBinAddr: 0x100009EB8, symSize: 0x44 }
  - { offsetInCU: 0x5E41, offset: 0x39D3D, size: 0x8, addend: 0x0, symName: __ZNSt3__121__unwrap_and_dispatchB8ue170006INS_10__overloadINS_11__copy_loopINS_17_ClassicAlgPolicyEEENS_14__copy_trivialEEEPKiS8_PiLi0EEENS_4pairIT0_T2_EESB_T1_SC_, symObjAddr: 0x1978, symBinAddr: 0x100009EFC, symSize: 0xB4 }
  - { offsetInCU: 0x6054, offset: 0x39F50, size: 0x8, addend: 0x0, symName: __ZNSt3__19make_pairB8ue170006IPKiPiEENS_4pairINS_18__unwrap_ref_decayIT_E4typeENS5_IT0_E4typeEEEOS6_OS9_, symObjAddr: 0x1A74, symBinAddr: 0x100009FF8, symSize: 0x38 }
  - { offsetInCU: 0x60A3, offset: 0x39F9F, size: 0x8, addend: 0x0, symName: __ZNSt3__114__rewrap_rangeB8ue170006IPKiS2_EET_S3_T0_, symObjAddr: 0x1AAC, symBinAddr: 0x10000A030, symSize: 0x2C }
  - { offsetInCU: 0x60EF, offset: 0x39FEB, size: 0x8, addend: 0x0, symName: __ZNSt3__119__copy_trivial_implB8ue170006IKiiEENS_4pairIPT_PT0_EES4_S4_S6_, symObjAddr: 0x1AD8, symBinAddr: 0x10000A05C, symSize: 0x80 }
  - { offsetInCU: 0x6157, offset: 0x3A053, size: 0x8, addend: 0x0, symName: __ZNSt3__119__constexpr_memmoveB8ue170006IiKiLi0EEEPT_S3_PT0_NS_15__element_countE, symObjAddr: 0x1B58, symBinAddr: 0x10000A0DC, symSize: 0x64 }
  - { offsetInCU: 0x61C5, offset: 0x3A0C1, size: 0x8, addend: 0x0, symName: __ZNSt3__19make_pairB8ue170006IRPKiPiEENS_4pairINS_18__unwrap_ref_decayIT_E4typeENS6_IT0_E4typeEEEOS7_OSA_, symObjAddr: 0x1BBC, symBinAddr: 0x10000A140, symSize: 0x38 }
  - { offsetInCU: 0x6214, offset: 0x3A110, size: 0x8, addend: 0x0, symName: __ZNSt3__113__rewrap_iterB8ue170006IPKiS2_NS_18__unwrap_iter_implIS2_Lb1EEEEET_S5_T0_, symObjAddr: 0x1CD4, symBinAddr: 0x10000A258, symSize: 0x3C }
  - { offsetInCU: 0x6269, offset: 0x3A165, size: 0x8, addend: 0x0, symName: __ZNSt3__119__allocate_at_leastB8ue170006INS_9allocatorIiEEEENS_19__allocation_resultINS_16allocator_traitsIT_E7pointerEEERS5_m, symObjAddr: 0x2218, symBinAddr: 0x10000A720, symSize: 0x40 }
  - { offsetInCU: 0x62AC, offset: 0x3A1A8, size: 0x8, addend: 0x0, symName: __ZNSt3__110__distanceB8ue170006IPKiEENS_15iterator_traitsIT_E15difference_typeES4_S4_NS_26random_access_iterator_tagE, symObjAddr: 0x26A8, symBinAddr: 0x10000A8FC, symSize: 0x28 }
  - { offsetInCU: 0x62FA, offset: 0x3A1F6, size: 0x8, addend: 0x0, symName: __ZNSt3__18distanceB8ue170006IPiEENS_15iterator_traitsIT_E15difference_typeES3_S3_, symObjAddr: 0x28D0, symBinAddr: 0x10000AB24, symSize: 0x2C }
  - { offsetInCU: 0x633D, offset: 0x3A239, size: 0x8, addend: 0x0, symName: __ZNSt3__14nextB8ue170006IPiEENS_9enable_ifIXsr29__has_input_iterator_categoryIT_EE5valueES3_E4typeES3_NS_15iterator_traitsIS3_E15difference_typeE, symObjAddr: 0x28FC, symBinAddr: 0x10000AB50, symSize: 0x34 }
  - { offsetInCU: 0x6380, offset: 0x3A27C, size: 0x8, addend: 0x0, symName: __ZNSt3__14copyB8ue170006IPiS1_EET0_T_S3_S2_, symObjAddr: 0x2930, symBinAddr: 0x10000AB84, symSize: 0x40 }
  - { offsetInCU: 0x63DA, offset: 0x3A2D6, size: 0x8, addend: 0x0, symName: __ZNSt3__16__copyB8ue170006INS_17_ClassicAlgPolicyEPiS2_S2_EENS_4pairIT0_T2_EES4_T1_S5_, symObjAddr: 0x29FC, symBinAddr: 0x10000AC50, symSize: 0x44 }
  - { offsetInCU: 0x6446, offset: 0x3A342, size: 0x8, addend: 0x0, symName: __ZNSt3__19__advanceB8ue170006IPiEEvRT_NS_15iterator_traitsIS2_E15difference_typeENS_26random_access_iterator_tagE, symObjAddr: 0x2A78, symBinAddr: 0x10000ACCC, symSize: 0x28 }
  - { offsetInCU: 0x6491, offset: 0x3A38D, size: 0x8, addend: 0x0, symName: __ZNSt3__130__uninitialized_allocator_copyB8ue170006INS_9allocatorIiEEPiS3_S3_EET2_RT_T0_T1_S4_, symObjAddr: 0x2AA0, symBinAddr: 0x10000ACF4, symSize: 0x80 }
  - { offsetInCU: 0x652E, offset: 0x3A42A, size: 0x8, addend: 0x0, symName: __ZNSt3__114__unwrap_rangeB8ue170006IPiS1_EENS_4pairIT0_S3_EET_S5_, symObjAddr: 0x2B20, symBinAddr: 0x10000AD74, symSize: 0x60 }
  - { offsetInCU: 0x657A, offset: 0x3A476, size: 0x8, addend: 0x0, symName: __ZNSt3__135__uninitialized_allocator_copy_implB8ue170006INS_9allocatorIiEEiiiLPv0EEEPT2_RT_PT0_S9_S5_, symObjAddr: 0x2B80, symBinAddr: 0x10000ADD4, symSize: 0x38 }
  - { offsetInCU: 0x65FB, offset: 0x3A4F7, size: 0x8, addend: 0x0, symName: __ZNSt3__19make_pairB8ue170006IPiS1_EENS_4pairINS_18__unwrap_ref_decayIT_E4typeENS3_IT0_E4typeEEEOS4_OS7_, symObjAddr: 0x2BB8, symBinAddr: 0x10000AE0C, symSize: 0x38 }
  - { offsetInCU: 0x674D, offset: 0x3A649, size: 0x8, addend: 0x0, symName: __ZNSt3__123__dispatch_copy_or_moveB8ue170006INS_17_ClassicAlgPolicyENS_11__copy_loopIS1_EENS_14__copy_trivialEPiS5_S5_EENS_4pairIT2_T4_EES7_T3_S8_, symObjAddr: 0x2C60, symBinAddr: 0x10000AEB4, symSize: 0x44 }
  - { offsetInCU: 0x67CB, offset: 0x3A6C7, size: 0x8, addend: 0x0, symName: __ZNSt3__121__unwrap_and_dispatchB8ue170006INS_10__overloadINS_11__copy_loopINS_17_ClassicAlgPolicyEEENS_14__copy_trivialEEEPiS7_S7_Li0EEENS_4pairIT0_T2_EES9_T1_SA_, symObjAddr: 0x2CA4, symBinAddr: 0x10000AEF8, symSize: 0xB4 }
  - { offsetInCU: 0x6859, offset: 0x3A755, size: 0x8, addend: 0x0, symName: __ZNSt3__114__rewrap_rangeB8ue170006IPiS1_EET_S2_T0_, symObjAddr: 0x2DA0, symBinAddr: 0x10000AFF4, symSize: 0x2C }
  - { offsetInCU: 0x68A5, offset: 0x3A7A1, size: 0x8, addend: 0x0, symName: __ZNSt3__119__copy_trivial_implB8ue170006IiiEENS_4pairIPT_PT0_EES3_S3_S5_, symObjAddr: 0x2DCC, symBinAddr: 0x10000B020, symSize: 0x80 }
  - { offsetInCU: 0x690D, offset: 0x3A809, size: 0x8, addend: 0x0, symName: __ZNSt3__119__constexpr_memmoveB8ue170006IiiLi0EEEPT_S2_PT0_NS_15__element_countE, symObjAddr: 0x2E4C, symBinAddr: 0x10000B0A0, symSize: 0x64 }
  - { offsetInCU: 0x697B, offset: 0x3A877, size: 0x8, addend: 0x0, symName: __ZNSt3__19make_pairB8ue170006IRPiS1_EENS_4pairINS_18__unwrap_ref_decayIT_E4typeENS4_IT0_E4typeEEEOS5_OS8_, symObjAddr: 0x2EB0, symBinAddr: 0x10000B104, symSize: 0x38 }
  - { offsetInCU: 0x69CA, offset: 0x3A8C6, size: 0x8, addend: 0x0, symName: __ZNSt3__110__distanceB8ue170006IPiEENS_15iterator_traitsIT_E15difference_typeES3_S3_NS_26random_access_iterator_tagE, symObjAddr: 0x2F58, symBinAddr: 0x10000B1AC, symSize: 0x28 }
  - { offsetInCU: 0x702B, offset: 0x3AF27, size: 0x8, addend: 0x0, symName: __ZNKSt3__16chrono13__duration_ltINS0_8durationIxNS_5ratioILl1ELl1000EEEEENS2_IeNS3_ILl1ELl1EEEEEEclB8ue170006ERKS5_RKS7_, symObjAddr: 0x3CC4, symBinAddr: 0x10000B438, symSize: 0x78 }
  - { offsetInCU: 0x70A7, offset: 0x3AFA3, size: 0x8, addend: 0x0, symName: __ZNKSt3__16chrono15__duration_castINS0_8durationIeNS_5ratioILl1ELl1EEEEENS2_IeNS3_ILl1ELl1000EEEEENS3_ILl1000ELl1EEELb0ELb1EEclB8ue170006ERKS5_, symObjAddr: 0x3F64, symBinAddr: 0x10000B6D8, symSize: 0x4C }
  - { offsetInCU: 0x7112, offset: 0x3B00E, size: 0x8, addend: 0x0, symName: __ZNKSt3__16chrono15__duration_castINS0_8durationIxNS_5ratioILl1ELl1000EEEEENS2_IxNS3_ILl1ELl1000000000EEEEENS3_ILl1000000ELl1EEELb0ELb1EEclB8ue170006ERKS5_, symObjAddr: 0x3FC8, symBinAddr: 0x10000B73C, symSize: 0x4C }
  - { offsetInCU: 0x715A, offset: 0x3B056, size: 0x8, addend: 0x0, symName: __ZNKSt3__16chrono13__duration_ltINS0_8durationIxNS_5ratioILl1ELl1000000000EEEEENS2_IxNS3_ILl1ELl1000EEEEEEclB8ue170006ERKS5_RKS7_, symObjAddr: 0x4078, symBinAddr: 0x10000B7EC, symSize: 0x6C }
  - { offsetInCU: 0x9590, offset: 0x3D48C, size: 0x8, addend: 0x0, symName: __ZN13CustomerPizzaC2Ev, symObjAddr: 0x0, symBinAddr: 0x10000865C, symSize: 0x60 }
  - { offsetInCU: 0x95BB, offset: 0x3D4B7, size: 0x8, addend: 0x0, symName: __ZNSt3__16vectorIiNS_9allocatorIiEEEC1B8ue170006Ev, symObjAddr: 0x60, symBinAddr: 0x1000086BC, symSize: 0x2C }
  - { offsetInCU: 0x95E4, offset: 0x3D4E0, size: 0x8, addend: 0x0, symName: __ZN13CustomerPizzaC1Ev, symObjAddr: 0x8C, symBinAddr: 0x1000086E8, symSize: 0x2C }
  - { offsetInCU: 0x960F, offset: 0x3D50B, size: 0x8, addend: 0x0, symName: __ZN13CustomerPizza18updateOvenDurationEv, symObjAddr: 0xB8, symBinAddr: 0x100008714, symSize: 0x44 }
  - { offsetInCU: 0x9636, offset: 0x3D532, size: 0x8, addend: 0x0, symName: __ZN13CustomerPizza18updateToppingOrderEv, symObjAddr: 0xFC, symBinAddr: 0x100008758, symSize: 0xF0 }
  - { offsetInCU: 0x965C, offset: 0x3D558, size: 0x8, addend: 0x0, symName: __ZNSt3__16vectorIiNS_9allocatorIiEEE6assignB8ue170006ESt16initializer_listIiE, symObjAddr: 0x1EC, symBinAddr: 0x100008848, symSize: 0x5C }
  - { offsetInCU: 0x9691, offset: 0x3D58D, size: 0x8, addend: 0x0, symName: __ZN13CustomerPizza13updateNumCutsEv, symObjAddr: 0x248, symBinAddr: 0x1000088A4, symSize: 0x44 }
  - { offsetInCU: 0x96B8, offset: 0x3D5B4, size: 0x8, addend: 0x0, symName: __ZN13CustomerPizza13updateBaseTipEv, symObjAddr: 0x28C, symBinAddr: 0x1000088E8, symSize: 0x48 }
  - { offsetInCU: 0x96DF, offset: 0x3D5DB, size: 0x8, addend: 0x0, symName: __ZN13CustomerPizza16setOvenStartTimeEv, symObjAddr: 0x2D4, symBinAddr: 0x100008930, symSize: 0x10 }
  - { offsetInCU: 0x9706, offset: 0x3D602, size: 0x8, addend: 0x0, symName: __ZN13CustomerPizza10getNumCutsEv, symObjAddr: 0x2E4, symBinAddr: 0x100008940, symSize: 0x18 }
  - { offsetInCU: 0x972D, offset: 0x3D629, size: 0x8, addend: 0x0, symName: __ZN13CustomerPizza10getBaseTipEv, symObjAddr: 0x2FC, symBinAddr: 0x100008958, symSize: 0x18 }
  - { offsetInCU: 0x9754, offset: 0x3D650, size: 0x8, addend: 0x0, symName: __ZN13CustomerPizza15getOvenDurationEv, symObjAddr: 0x314, symBinAddr: 0x100008970, symSize: 0x18 }
  - { offsetInCU: 0x977B, offset: 0x3D677, size: 0x8, addend: 0x0, symName: __ZN13CustomerPizza15getToppingOrderEv, symObjAddr: 0x32C, symBinAddr: 0x100008988, symSize: 0x18 }
  - { offsetInCU: 0x97A2, offset: 0x3D69E, size: 0x8, addend: 0x0, symName: __ZN13CustomerPizza10setNumCutsEi, symObjAddr: 0x344, symBinAddr: 0x1000089A0, symSize: 0x20 }
  - { offsetInCU: 0x97D7, offset: 0x3D6D3, size: 0x8, addend: 0x0, symName: __ZN13CustomerPizza10setBaseTipEf, symObjAddr: 0x364, symBinAddr: 0x1000089C0, symSize: 0x20 }
  - { offsetInCU: 0x980C, offset: 0x3D708, size: 0x8, addend: 0x0, symName: __ZN13CustomerPizza15setToppingOrderENSt3__16vectorIiNS0_9allocatorIiEEEE, symObjAddr: 0x384, symBinAddr: 0x1000089E0, symSize: 0x30 }
  - { offsetInCU: 0x9842, offset: 0x3D73E, size: 0x8, addend: 0x0, symName: __ZNSt3__16vectorIiNS_9allocatorIiEEEaSB8ue170006ERKS3_, symObjAddr: 0x3B4, symBinAddr: 0x100008A10, symSize: 0x68 }
  - { offsetInCU: 0x9877, offset: 0x3D773, size: 0x8, addend: 0x0, symName: __ZN13CustomerPizza15setOvenDurationEi, symObjAddr: 0x41C, symBinAddr: 0x100008A78, symSize: 0x20 }
  - { offsetInCU: 0x98AC, offset: 0x3D7A8, size: 0x8, addend: 0x0, symName: __ZN13CustomerPizza20feedback_calculationEf, symObjAddr: 0x43C, symBinAddr: 0x100008A98, symSize: 0x18C }
  - { offsetInCU: 0x98E1, offset: 0x3D7DD, size: 0x8, addend: 0x0, symName: __ZN13CustomerPizza8reactionE10Efficiency, symObjAddr: 0x694, symBinAddr: 0x100008C24, symSize: 0x4D4 }
  - { offsetInCU: 0x992A, offset: 0x3D826, size: 0x8, addend: 0x0, symName: __ZNSt3__16chrono8durationIxNS_5ratioILl1ELl1000EEEEC1B8ue170006IiEERKT_PNS_9enable_ifIXaasr14is_convertibleIS8_xEE5valueooL_ZNS_17integral_constantIbLb0EE5valueEEntsr23treat_as_floating_pointIS6_EE5valueEvE4typeE, symObjAddr: 0xC60, symBinAddr: 0x1000091F0, symSize: 0x3C }
  - { offsetInCU: 0x9975, offset: 0x3D871, size: 0x8, addend: 0x0, symName: __ZNSt3__16chrono8durationIxNS_5ratioILl1ELl1000EEEEC2B8ue170006IiEERKT_PNS_9enable_ifIXaasr14is_convertibleIS8_xEE5valueooL_ZNS_17integral_constantIbLb0EE5valueEEntsr23treat_as_floating_pointIS6_EE5valueEvE4typeE, symObjAddr: 0xC9C, symBinAddr: 0x10000922C, symSize: 0x28 }
  - { offsetInCU: 0x99C0, offset: 0x3D8BC, size: 0x8, addend: 0x0, symName: __ZNSt3__16vectorIiNS_9allocatorIiEEEC2B8ue170006Ev, symObjAddr: 0xCC4, symBinAddr: 0x100009254, symSize: 0x4C }
  - { offsetInCU: 0x99F3, offset: 0x3D8EF, size: 0x8, addend: 0x0, symName: __ZNSt3__117__compressed_pairIPiNS_9allocatorIiEEEC1B8ue170006IDnNS_18__default_init_tagEEEOT_OT0_, symObjAddr: 0xD10, symBinAddr: 0x1000092A0, symSize: 0x3C }
  - { offsetInCU: 0x9A4A, offset: 0x3D946, size: 0x8, addend: 0x0, symName: __ZNSt3__117__compressed_pairIPiNS_9allocatorIiEEEC2B8ue170006IDnNS_18__default_init_tagEEEOT_OT0_, symObjAddr: 0xD58, symBinAddr: 0x1000092DC, symSize: 0x40 }
  - { offsetInCU: 0x9AA1, offset: 0x3D99D, size: 0x8, addend: 0x0, symName: __ZNSt3__122__compressed_pair_elemIPiLi0ELb0EEC2B8ue170006IDnvEEOT_, symObjAddr: 0xD98, symBinAddr: 0x10000931C, symSize: 0x1C }
  - { offsetInCU: 0x9AE2, offset: 0x3D9DE, size: 0x8, addend: 0x0, symName: __ZNSt3__122__compressed_pair_elemINS_9allocatorIiEELi1ELb1EEC2B8ue170006ENS_18__default_init_tagE, symObjAddr: 0xDB4, symBinAddr: 0x100009338, symSize: 0x2C }
  - { offsetInCU: 0x9B16, offset: 0x3DA12, size: 0x8, addend: 0x0, symName: __ZNSt3__19allocatorIiEC2B8ue170006Ev, symObjAddr: 0xDE0, symBinAddr: 0x100009364, symSize: 0x2C }
  - { offsetInCU: 0x9B3F, offset: 0x3DA3B, size: 0x8, addend: 0x0, symName: __ZNSt3__116__non_trivial_ifILb1ENS_9allocatorIiEEEC2B8ue170006Ev, symObjAddr: 0xE0C, symBinAddr: 0x100009390, symSize: 0x14 }
  - { offsetInCU: 0x9B68, offset: 0x3DA64, size: 0x8, addend: 0x0, symName: __ZNSt3__16vectorIiNS_9allocatorIiEEE6assignIPKiLi0EEEvT_S7_, symObjAddr: 0xE20, symBinAddr: 0x1000093A4, symSize: 0x5C }
  - { offsetInCU: 0x9BBB, offset: 0x3DAB7, size: 0x8, addend: 0x0, symName: __ZNKSt16initializer_listIiE5beginB8ue170006Ev, symObjAddr: 0xE7C, symBinAddr: 0x100009400, symSize: 0x18 }
  - { offsetInCU: 0x9BE0, offset: 0x3DADC, size: 0x8, addend: 0x0, symName: __ZNKSt16initializer_listIiE3endB8ue170006Ev, symObjAddr: 0xE94, symBinAddr: 0x100009418, symSize: 0x20 }
  - { offsetInCU: 0x9C05, offset: 0x3DB01, size: 0x8, addend: 0x0, symName: __ZNSt3__16vectorIiNS_9allocatorIiEEE18__assign_with_sizeB8ue170006IPKiS6_EEvT_T0_l, symObjAddr: 0xEB4, symBinAddr: 0x100009438, symSize: 0x164 }
  - { offsetInCU: 0x9CB4, offset: 0x3DBB0, size: 0x8, addend: 0x0, symName: __ZNKSt3__16vectorIiNS_9allocatorIiEEE8capacityB8ue170006Ev, symObjAddr: 0x1044, symBinAddr: 0x1000095C8, symSize: 0x40 }
  - { offsetInCU: 0x9CDA, offset: 0x3DBD6, size: 0x8, addend: 0x0, symName: __ZNKSt3__16vectorIiNS_9allocatorIiEEE4sizeB8ue170006Ev, symObjAddr: 0x1084, symBinAddr: 0x100009608, symSize: 0x28 }
  - { offsetInCU: 0x9CFF, offset: 0x3DBFB, size: 0x8, addend: 0x0, symName: __ZNSt3__16vectorIiNS_9allocatorIiEEE18__construct_at_endIPKiS6_EEvT_T0_m, symObjAddr: 0x1120, symBinAddr: 0x1000096A4, symSize: 0x8C }
  - { offsetInCU: 0x9D72, offset: 0x3DC6E, size: 0x8, addend: 0x0, symName: __ZNSt3__16vectorIiNS_9allocatorIiEEE17__destruct_at_endB8ue170006EPi, symObjAddr: 0x11F0, symBinAddr: 0x100009774, symSize: 0x4C }
  - { offsetInCU: 0x9DB6, offset: 0x3DCB2, size: 0x8, addend: 0x0, symName: __ZNSt3__16vectorIiNS_9allocatorIiEEE13__vdeallocateEv, symObjAddr: 0x123C, symBinAddr: 0x1000097C0, symSize: 0x94 }
  - { offsetInCU: 0x9DDB, offset: 0x3DCD7, size: 0x8, addend: 0x0, symName: __ZNSt3__16vectorIiNS_9allocatorIiEEE11__vallocateB8ue170006Em, symObjAddr: 0x12D0, symBinAddr: 0x100009854, symSize: 0xAC }
  - { offsetInCU: 0x9E1F, offset: 0x3DD1B, size: 0x8, addend: 0x0, symName: __ZNKSt3__16vectorIiNS_9allocatorIiEEE11__recommendB8ue170006Em, symObjAddr: 0x137C, symBinAddr: 0x100009900, symSize: 0xB4 }
  - { offsetInCU: 0x9E71, offset: 0x3DD6D, size: 0x8, addend: 0x0, symName: __ZNKSt3__16vectorIiNS_9allocatorIiEEE9__end_capB8ue170006Ev, symObjAddr: 0x1430, symBinAddr: 0x1000099B4, symSize: 0x28 }
  - { offsetInCU: 0x9E96, offset: 0x3DD92, size: 0x8, addend: 0x0, symName: __ZNKSt3__117__compressed_pairIPiNS_9allocatorIiEEE5firstB8ue170006Ev, symObjAddr: 0x1458, symBinAddr: 0x1000099DC, symSize: 0x24 }
  - { offsetInCU: 0x9EBC, offset: 0x3DDB8, size: 0x8, addend: 0x0, symName: __ZNKSt3__122__compressed_pair_elemIPiLi0ELb0EE5__getB8ue170006Ev, symObjAddr: 0x147C, symBinAddr: 0x100009A00, symSize: 0x14 }
  - { offsetInCU: 0x9EFA, offset: 0x3DDF6, size: 0x8, addend: 0x0, symName: __ZNSt3__16vectorIiNS_9allocatorIiEEE21_ConstructTransactionC1B8ue170006ERS3_m, symObjAddr: 0x1504, symBinAddr: 0x100009A88, symSize: 0x3C }
  - { offsetInCU: 0x9F40, offset: 0x3DE3C, size: 0x8, addend: 0x0, symName: __ZNSt3__16vectorIiNS_9allocatorIiEEE7__allocB8ue170006Ev, symObjAddr: 0x15C0, symBinAddr: 0x100009B44, symSize: 0x28 }
  - { offsetInCU: 0x9F66, offset: 0x3DE62, size: 0x8, addend: 0x0, symName: __ZNSt3__16vectorIiNS_9allocatorIiEEE21_ConstructTransactionD1B8ue170006Ev, symObjAddr: 0x15E8, symBinAddr: 0x100009B6C, symSize: 0x2C }
  - { offsetInCU: 0x9F8F, offset: 0x3DE8B, size: 0x8, addend: 0x0, symName: __ZNSt3__16vectorIiNS_9allocatorIiEEE21_ConstructTransactionC2B8ue170006ERS3_m, symObjAddr: 0x1614, symBinAddr: 0x100009B98, symSize: 0x44 }
  - { offsetInCU: 0x9FF4, offset: 0x3DEF0, size: 0x8, addend: 0x0, symName: __ZNSt3__14pairIPKiS2_EC1B8ue170006IS2_S2_LPv0EEEOT_OT0_, symObjAddr: 0x17AC, symBinAddr: 0x100009D30, symSize: 0x3C }
  - { offsetInCU: 0xA051, offset: 0x3DF4D, size: 0x8, addend: 0x0, symName: __ZNSt3__14pairIPKiS2_EC2B8ue170006IS2_S2_LPv0EEEOT_OT0_, symObjAddr: 0x17E8, symBinAddr: 0x100009D6C, symSize: 0x34 }
  - { offsetInCU: 0xA0AE, offset: 0x3DFAA, size: 0x8, addend: 0x0, symName: __ZNSt3__118__unwrap_iter_implIPKiLb1EE8__unwrapB8ue170006ES2_, symObjAddr: 0x181C, symBinAddr: 0x100009DA0, symSize: 0x24 }
  - { offsetInCU: 0xA0D1, offset: 0x3DFCD, size: 0x8, addend: 0x0, symName: __ZNSt3__118__unwrap_iter_implIPiLb1EE8__unwrapB8ue170006ES1_, symObjAddr: 0x1854, symBinAddr: 0x100009DD8, symSize: 0x24 }
  - { offsetInCU: 0xA0F4, offset: 0x3DFF0, size: 0x8, addend: 0x0, symName: __ZNSt3__118__unwrap_iter_implIPiLb1EE8__rewrapB8ue170006ES1_S1_, symObjAddr: 0x188C, symBinAddr: 0x100009E10, symSize: 0x50 }
  - { offsetInCU: 0xA124, offset: 0x3E020, size: 0x8, addend: 0x0, symName: __ZNSt3__117__compressed_pairIPiNS_9allocatorIiEEE6secondB8ue170006Ev, symObjAddr: 0x18DC, symBinAddr: 0x100009E60, symSize: 0x24 }
  - { offsetInCU: 0xA14A, offset: 0x3E046, size: 0x8, addend: 0x0, symName: __ZNSt3__122__compressed_pair_elemINS_9allocatorIiEELi1ELb1EE5__getB8ue170006Ev, symObjAddr: 0x1900, symBinAddr: 0x100009E84, symSize: 0x14 }
  - { offsetInCU: 0xA16F, offset: 0x3E06B, size: 0x8, addend: 0x0, symName: __ZNSt3__16vectorIiNS_9allocatorIiEEE21_ConstructTransactionD2B8ue170006Ev, symObjAddr: 0x1914, symBinAddr: 0x100009E98, symSize: 0x20 }
  - { offsetInCU: 0xA1BA, offset: 0x3E0B6, size: 0x8, addend: 0x0, symName: __ZNKSt3__114__copy_trivialclB8ue170006IKiiLi0EEENS_4pairIPT_PT0_EES5_S5_S7_, symObjAddr: 0x1A2C, symBinAddr: 0x100009FB0, symSize: 0x48 }
  - { offsetInCU: 0xA22C, offset: 0x3E128, size: 0x8, addend: 0x0, symName: __ZNSt3__14pairIPKiPiEC1B8ue170006IRS2_S3_LPv0EEEOT_OT0_, symObjAddr: 0x1BF4, symBinAddr: 0x10000A178, symSize: 0x3C }
  - { offsetInCU: 0xA289, offset: 0x3E185, size: 0x8, addend: 0x0, symName: __ZNSt3__14pairIPKiPiEC2B8ue170006IRS2_S3_LPv0EEEOT_OT0_, symObjAddr: 0x1C30, symBinAddr: 0x10000A1B4, symSize: 0x34 }
  - { offsetInCU: 0xA2E6, offset: 0x3E1E2, size: 0x8, addend: 0x0, symName: __ZNSt3__14pairIPKiPiEC1B8ue170006IS2_S3_LPv0EEEOT_OT0_, symObjAddr: 0x1C64, symBinAddr: 0x10000A1E8, symSize: 0x3C }
  - { offsetInCU: 0xA343, offset: 0x3E23F, size: 0x8, addend: 0x0, symName: __ZNSt3__14pairIPKiPiEC2B8ue170006IS2_S3_LPv0EEEOT_OT0_, symObjAddr: 0x1CA0, symBinAddr: 0x10000A224, symSize: 0x34 }
  - { offsetInCU: 0xA3A0, offset: 0x3E29C, size: 0x8, addend: 0x0, symName: __ZNSt3__118__unwrap_iter_implIPKiLb1EE8__rewrapB8ue170006ES2_S2_, symObjAddr: 0x1D10, symBinAddr: 0x10000A294, symSize: 0x50 }
  - { offsetInCU: 0xA3D0, offset: 0x3E2CC, size: 0x8, addend: 0x0, symName: __ZNSt3__16vectorIiNS_9allocatorIiEEE22__base_destruct_at_endB8ue170006EPi, symObjAddr: 0x1D60, symBinAddr: 0x10000A2E4, symSize: 0x8C }
  - { offsetInCU: 0xA413, offset: 0x3E30F, size: 0x8, addend: 0x0, symName: __ZNKSt3__16vectorIiNS_9allocatorIiEEE17__annotate_shrinkB8ue170006Em, symObjAddr: 0x1DEC, symBinAddr: 0x10000A370, symSize: 0xB4 }
  - { offsetInCU: 0xA448, offset: 0x3E344, size: 0x8, addend: 0x0, symName: __ZNSt3__116allocator_traitsINS_9allocatorIiEEE7destroyB8ue170006IivEEvRS2_PT_, symObjAddr: 0x1EA0, symBinAddr: 0x10000A424, symSize: 0x2C }
  - { offsetInCU: 0xA485, offset: 0x3E381, size: 0x8, addend: 0x0, symName: __ZNSt3__19allocatorIiE7destroyB8ue170006EPi, symObjAddr: 0x1ECC, symBinAddr: 0x10000A450, symSize: 0x14 }
  - { offsetInCU: 0xA4B8, offset: 0x3E3B4, size: 0x8, addend: 0x0, symName: __ZNKSt3__16vectorIiNS_9allocatorIiEEE31__annotate_contiguous_containerB8ue170006EPKvS5_S5_S5_, symObjAddr: 0x1EE0, symBinAddr: 0x10000A464, symSize: 0x20 }
  - { offsetInCU: 0xA508, offset: 0x3E404, size: 0x8, addend: 0x0, symName: __ZNKSt3__16vectorIiNS_9allocatorIiEEE4dataB8ue170006Ev, symObjAddr: 0x1F00, symBinAddr: 0x10000A484, symSize: 0x28 }
  - { offsetInCU: 0xA52D, offset: 0x3E429, size: 0x8, addend: 0x0, symName: __ZNSt3__16vectorIiNS_9allocatorIiEEE5clearB8ue170006Ev, symObjAddr: 0x1F28, symBinAddr: 0x10000A4AC, symSize: 0x44 }
  - { offsetInCU: 0xA561, offset: 0x3E45D, size: 0x8, addend: 0x0, symName: __ZNKSt3__16vectorIiNS_9allocatorIiEEE17__annotate_deleteB8ue170006Ev, symObjAddr: 0x1F6C, symBinAddr: 0x10000A4F0, symSize: 0xB8 }
  - { offsetInCU: 0xA587, offset: 0x3E483, size: 0x8, addend: 0x0, symName: __ZNSt3__116allocator_traitsINS_9allocatorIiEEE10deallocateB8ue170006ERS2_Pim, symObjAddr: 0x2024, symBinAddr: 0x10000A5A8, symSize: 0x34 }
  - { offsetInCU: 0xA5C8, offset: 0x3E4C4, size: 0x8, addend: 0x0, symName: __ZNSt3__16vectorIiNS_9allocatorIiEEE9__end_capB8ue170006Ev, symObjAddr: 0x2058, symBinAddr: 0x10000A5DC, symSize: 0x28 }
  - { offsetInCU: 0xA5ED, offset: 0x3E4E9, size: 0x8, addend: 0x0, symName: __ZNSt3__16vectorIiNS_9allocatorIiEEE7__clearB8ue170006Ev, symObjAddr: 0x2080, symBinAddr: 0x10000A604, symSize: 0x28 }
  - { offsetInCU: 0xA612, offset: 0x3E50E, size: 0x8, addend: 0x0, symName: __ZNSt3__19allocatorIiE10deallocateB8ue170006EPim, symObjAddr: 0x20A8, symBinAddr: 0x10000A62C, symSize: 0x40 }
  - { offsetInCU: 0xA653, offset: 0x3E54F, size: 0x8, addend: 0x0, symName: __ZNSt3__117__compressed_pairIPiNS_9allocatorIiEEE5firstB8ue170006Ev, symObjAddr: 0x2164, symBinAddr: 0x10000A66C, symSize: 0x24 }
  - { offsetInCU: 0xA679, offset: 0x3E575, size: 0x8, addend: 0x0, symName: __ZNSt3__122__compressed_pair_elemIPiLi0ELb0EE5__getB8ue170006Ev, symObjAddr: 0x2188, symBinAddr: 0x10000A690, symSize: 0x14 }
  - { offsetInCU: 0xA69E, offset: 0x3E59A, size: 0x8, addend: 0x0, symName: __ZNKSt3__16vectorIiNS_9allocatorIiEEE8max_sizeEv, symObjAddr: 0x219C, symBinAddr: 0x10000A6A4, symSize: 0x60 }
  - { offsetInCU: 0xA6C3, offset: 0x3E5BF, size: 0x8, addend: 0x0, symName: __ZNKSt3__16vectorIiNS_9allocatorIiEEE20__throw_length_errorB8ue170006Ev, symObjAddr: 0x21FC, symBinAddr: 0x10000A704, symSize: 0x1C }
  - { offsetInCU: 0xA6E8, offset: 0x3E5E4, size: 0x8, addend: 0x0, symName: __ZNKSt3__16vectorIiNS_9allocatorIiEEE14__annotate_newB8ue170006Em, symObjAddr: 0x2258, symBinAddr: 0x10000A760, symSize: 0xAC }
  - { offsetInCU: 0xA727, offset: 0x3E623, size: 0x8, addend: 0x0, symName: __ZNSt3__116allocator_traitsINS_9allocatorIiEEE8max_sizeB8ue170006IS2_vEEmRKS2_, symObjAddr: 0x2330, symBinAddr: 0x10000A80C, symSize: 0x24 }
  - { offsetInCU: 0xA754, offset: 0x3E650, size: 0x8, addend: 0x0, symName: __ZNKSt3__16vectorIiNS_9allocatorIiEEE7__allocB8ue170006Ev, symObjAddr: 0x2354, symBinAddr: 0x10000A830, symSize: 0x28 }
  - { offsetInCU: 0xA77A, offset: 0x3E676, size: 0x8, addend: 0x0, symName: __ZNKSt3__19allocatorIiE8max_sizeB8ue170006Ev, symObjAddr: 0x2418, symBinAddr: 0x10000A858, symSize: 0x14 }
  - { offsetInCU: 0xA79E, offset: 0x3E69A, size: 0x8, addend: 0x0, symName: __ZNKSt3__117__compressed_pairIPiNS_9allocatorIiEEE6secondB8ue170006Ev, symObjAddr: 0x242C, symBinAddr: 0x10000A86C, symSize: 0x24 }
  - { offsetInCU: 0xA7C4, offset: 0x3E6C0, size: 0x8, addend: 0x0, symName: __ZNKSt3__122__compressed_pair_elemINS_9allocatorIiEELi1ELb1EE5__getB8ue170006Ev, symObjAddr: 0x2450, symBinAddr: 0x10000A890, symSize: 0x14 }
  - { offsetInCU: 0xA7E8, offset: 0x3E6E4, size: 0x8, addend: 0x0, symName: __ZNSt3__19allocatorIiE8allocateB8ue170006Em, symObjAddr: 0x2550, symBinAddr: 0x10000A8A4, symSize: 0x58 }
  - { offsetInCU: 0xA81B, offset: 0x3E717, size: 0x8, addend: 0x0, symName: __ZNSt3__16vectorIiNS_9allocatorIiEEE19__copy_assign_allocB8ue170006ERKS3_, symObjAddr: 0x26D0, symBinAddr: 0x10000A924, symSize: 0x2C }
  - { offsetInCU: 0xA850, offset: 0x3E74C, size: 0x8, addend: 0x0, symName: __ZNSt3__16vectorIiNS_9allocatorIiEEE6assignIPiLi0EEEvT_S6_, symObjAddr: 0x26FC, symBinAddr: 0x10000A950, symSize: 0x5C }
  - { offsetInCU: 0xA8A3, offset: 0x3E79F, size: 0x8, addend: 0x0, symName: __ZNSt3__16vectorIiNS_9allocatorIiEEE19__copy_assign_allocB8ue170006ERKS3_NS_17integral_constantIbLb0EEE, symObjAddr: 0x2758, symBinAddr: 0x10000A9AC, symSize: 0x14 }
  - { offsetInCU: 0xA8DE, offset: 0x3E7DA, size: 0x8, addend: 0x0, symName: __ZNSt3__16vectorIiNS_9allocatorIiEEE18__assign_with_sizeB8ue170006IPiS5_EEvT_T0_l, symObjAddr: 0x276C, symBinAddr: 0x10000A9C0, symSize: 0x164 }
  - { offsetInCU: 0xA98E, offset: 0x3E88A, size: 0x8, addend: 0x0, symName: __ZNSt3__16vectorIiNS_9allocatorIiEEE18__construct_at_endIPiS5_EEvT_T0_m, symObjAddr: 0x2970, symBinAddr: 0x10000ABC4, symSize: 0x8C }
  - { offsetInCU: 0xAA1B, offset: 0x3E917, size: 0x8, addend: 0x0, symName: __ZNSt3__14pairIPiS1_EC1B8ue170006IS1_S1_LPv0EEEOT_OT0_, symObjAddr: 0x2BF0, symBinAddr: 0x10000AE44, symSize: 0x3C }
  - { offsetInCU: 0xAA78, offset: 0x3E974, size: 0x8, addend: 0x0, symName: __ZNSt3__14pairIPiS1_EC2B8ue170006IS1_S1_LPv0EEEOT_OT0_, symObjAddr: 0x2C2C, symBinAddr: 0x10000AE80, symSize: 0x34 }
  - { offsetInCU: 0xAAD4, offset: 0x3E9D0, size: 0x8, addend: 0x0, symName: __ZNKSt3__114__copy_trivialclB8ue170006IiiLi0EEENS_4pairIPT_PT0_EES4_S4_S6_, symObjAddr: 0x2D58, symBinAddr: 0x10000AFAC, symSize: 0x48 }
  - { offsetInCU: 0xAB3C, offset: 0x3EA38, size: 0x8, addend: 0x0, symName: __ZNSt3__14pairIPiS1_EC1B8ue170006IRS1_S1_LPv0EEEOT_OT0_, symObjAddr: 0x2EE8, symBinAddr: 0x10000B13C, symSize: 0x3C }
  - { offsetInCU: 0xAB99, offset: 0x3EA95, size: 0x8, addend: 0x0, symName: __ZNSt3__14pairIPiS1_EC2B8ue170006IRS1_S1_LPv0EEEOT_OT0_, symObjAddr: 0x2F24, symBinAddr: 0x10000B178, symSize: 0x34 }
  - { offsetInCU: 0xABF6, offset: 0x3EAF2, size: 0x8, addend: 0x0, symName: __ZNSt3__16chrono8durationIxNS_5ratioILl1ELl1000EEEE4zeroB8ue170006Ev, symObjAddr: 0x3A90, symBinAddr: 0x10000B204, symSize: 0x3C }
  - { offsetInCU: 0xAC0A, offset: 0x3EB06, size: 0x8, addend: 0x0, symName: __ZNSt3__16chrono8durationIxNS_5ratioILl1ELl1000000000EEEEppB8ue170006Ev, symObjAddr: 0x3B64, symBinAddr: 0x10000B2D8, symSize: 0x20 }
  - { offsetInCU: 0xAC2F, offset: 0x3EB2B, size: 0x8, addend: 0x0, symName: __ZNSt3__16chrono8durationIxNS_5ratioILl1ELl1000000000EEEE3maxB8ue170006Ev, symObjAddr: 0x3B84, symBinAddr: 0x10000B2F8, symSize: 0x3C }
  - { offsetInCU: 0xAC4C, offset: 0x3EB48, size: 0x8, addend: 0x0, symName: __ZNKSt3__16chrono13__duration_ltINS0_8durationIxNS_5ratioILl1ELl1000EEEEES5_EclB8ue170006ERKS5_S8_, symObjAddr: 0x3BF4, symBinAddr: 0x10000B368, symSize: 0x4C }
  - { offsetInCU: 0xAC90, offset: 0x3EB8C, size: 0x8, addend: 0x0, symName: __ZNKSt3__16chrono8durationIxNS_5ratioILl1ELl1000EEEE5countB8ue170006Ev, symObjAddr: 0x3C40, symBinAddr: 0x10000B3B4, symSize: 0x18 }
  - { offsetInCU: 0xACB5, offset: 0x3EBB1, size: 0x8, addend: 0x0, symName: __ZNSt3__16chrono15duration_valuesIxE4zeroB8ue170006Ev, symObjAddr: 0x3C58, symBinAddr: 0x10000B3CC, symSize: 0x8 }
  - { offsetInCU: 0xACD3, offset: 0x3EBCF, size: 0x8, addend: 0x0, symName: __ZNSt3__16chrono8durationIxNS_5ratioILl1ELl1000EEEEC1B8ue170006IxEERKT_PNS_9enable_ifIXaasr14is_convertibleIS8_xEE5valueooL_ZNS_17integral_constantIbLb0EE5valueEEntsr23treat_as_floating_pointIS6_EE5valueEvE4typeE, symObjAddr: 0x3C60, symBinAddr: 0x10000B3D4, symSize: 0x3C }
  - { offsetInCU: 0xAD1E, offset: 0x3EC1A, size: 0x8, addend: 0x0, symName: __ZNSt3__16chrono8durationIxNS_5ratioILl1ELl1000EEEEC2B8ue170006IxEERKT_PNS_9enable_ifIXaasr14is_convertibleIS8_xEE5valueooL_ZNS_17integral_constantIbLb0EE5valueEEntsr23treat_as_floating_pointIS6_EE5valueEvE4typeE, symObjAddr: 0x3C9C, symBinAddr: 0x10000B410, symSize: 0x28 }
  - { offsetInCU: 0xAD69, offset: 0x3EC65, size: 0x8, addend: 0x0, symName: __ZNSt3__16chrono8durationIeNS_5ratioILl1ELl1000EEEEC1B8ue170006IxS3_EERKNS1_IT_T0_EEPNS_9enable_ifIXaasr13__no_overflowIS7_S3_EE5valueooL_ZNS_17integral_constantIbLb1EE5valueEEaaeqsr13__no_overflowIS7_S3_E4typeE3denLi1Entsr23treat_as_floating_pointIS6_EE5valueEvE4typeE, symObjAddr: 0x3D3C, symBinAddr: 0x10000B4B0, symSize: 0x3C }
  - { offsetInCU: 0xADBE, offset: 0x3ECBA, size: 0x8, addend: 0x0, symName: __ZNKSt3__16chrono8durationIeNS_5ratioILl1ELl1000EEEE5countB8ue170006Ev, symObjAddr: 0x3D78, symBinAddr: 0x10000B4EC, symSize: 0x18 }
  - { offsetInCU: 0xADE3, offset: 0x3ECDF, size: 0x8, addend: 0x0, symName: __ZNSt3__16chrono8durationIeNS_5ratioILl1ELl1000EEEEC1B8ue170006IeNS2_ILl1ELl1EEEEERKNS1_IT_T0_EEPNS_9enable_ifIXaasr13__no_overflowIS8_S3_EE5valueooL_ZNS_17integral_constantIbLb1EE5valueEEaaeqsr13__no_overflowIS8_S3_E4typeE3denLi1Entsr23treat_as_floating_pointIS7_EE5valueEvE4typeE, symObjAddr: 0x3D90, symBinAddr: 0x10000B504, symSize: 0x3C }
  - { offsetInCU: 0xAE38, offset: 0x3ED34, size: 0x8, addend: 0x0, symName: __ZNSt3__16chrono8durationIeNS_5ratioILl1ELl1000EEEEC2B8ue170006IxS3_EERKNS1_IT_T0_EEPNS_9enable_ifIXaasr13__no_overflowIS7_S3_EE5valueooL_ZNS_17integral_constantIbLb1EE5valueEEaaeqsr13__no_overflowIS7_S3_E4typeE3denLi1Entsr23treat_as_floating_pointIS6_EE5valueEvE4typeE, symObjAddr: 0x3DCC, symBinAddr: 0x10000B540, symSize: 0x48 }
  - { offsetInCU: 0xAE96, offset: 0x3ED92, size: 0x8, addend: 0x0, symName: __ZNKSt3__16chrono15__duration_castINS0_8durationIxNS_5ratioILl1ELl1000EEEEENS2_IeS4_EENS3_ILl1ELl1EEELb1ELb1EEclB8ue170006ERKS5_, symObjAddr: 0x3E44, symBinAddr: 0x10000B5B8, symSize: 0x44 }
  - { offsetInCU: 0xAED4, offset: 0x3EDD0, size: 0x8, addend: 0x0, symName: __ZNSt3__16chrono8durationIeNS_5ratioILl1ELl1000EEEEC1B8ue170006IeEERKT_PNS_9enable_ifIXaasr14is_convertibleIS8_eEE5valueooL_ZNS_17integral_constantIbLb1EE5valueEEntsr23treat_as_floating_pointIS6_EE5valueEvE4typeE, symObjAddr: 0x3E88, symBinAddr: 0x10000B5FC, symSize: 0x3C }
  - { offsetInCU: 0xAF1F, offset: 0x3EE1B, size: 0x8, addend: 0x0, symName: __ZNSt3__16chrono8durationIeNS_5ratioILl1ELl1000EEEEC2B8ue170006IeEERKT_PNS_9enable_ifIXaasr14is_convertibleIS8_eEE5valueooL_ZNS_17integral_constantIbLb1EE5valueEEntsr23treat_as_floating_pointIS6_EE5valueEvE4typeE, symObjAddr: 0x3EC4, symBinAddr: 0x10000B638, symSize: 0x28 }
  - { offsetInCU: 0xAF6A, offset: 0x3EE66, size: 0x8, addend: 0x0, symName: __ZNSt3__16chrono8durationIeNS_5ratioILl1ELl1000EEEEC2B8ue170006IeNS2_ILl1ELl1EEEEERKNS1_IT_T0_EEPNS_9enable_ifIXaasr13__no_overflowIS8_S3_EE5valueooL_ZNS_17integral_constantIbLb1EE5valueEEaaeqsr13__no_overflowIS8_S3_E4typeE3denLi1Entsr23treat_as_floating_pointIS7_EE5valueEvE4typeE, symObjAddr: 0x3EEC, symBinAddr: 0x10000B660, symSize: 0x48 }
  - { offsetInCU: 0xAFBF, offset: 0x3EEBB, size: 0x8, addend: 0x0, symName: __ZNKSt3__16chrono8durationIeNS_5ratioILl1ELl1EEEE5countB8ue170006Ev, symObjAddr: 0x3FB0, symBinAddr: 0x10000B724, symSize: 0x18 }
  - { offsetInCU: 0xAFE4, offset: 0x3EEE0, size: 0x8, addend: 0x0, symName: __ZNSt3__16chrono8durationIxNS_5ratioILl1ELl1000000000EEEEC1B8ue170006IxEERKT_PNS_9enable_ifIXaasr14is_convertibleIS8_xEE5valueooL_ZNS_17integral_constantIbLb0EE5valueEEntsr23treat_as_floating_pointIS6_EE5valueEvE4typeE, symObjAddr: 0x4014, symBinAddr: 0x10000B788, symSize: 0x3C }
  - { offsetInCU: 0xB02F, offset: 0x3EF2B, size: 0x8, addend: 0x0, symName: __ZNSt3__16chrono8durationIxNS_5ratioILl1ELl1000000000EEEEC2B8ue170006IxEERKT_PNS_9enable_ifIXaasr14is_convertibleIS8_xEE5valueooL_ZNS_17integral_constantIbLb0EE5valueEEntsr23treat_as_floating_pointIS6_EE5valueEvE4typeE, symObjAddr: 0x4050, symBinAddr: 0x10000B7C4, symSize: 0x28 }
  - { offsetInCU: 0xB07A, offset: 0x3EF76, size: 0x8, addend: 0x0, symName: __ZNKSt3__16chrono8durationIxNS_5ratioILl1ELl1000000000EEEE5countB8ue170006Ev, symObjAddr: 0x40E4, symBinAddr: 0x10000B858, symSize: 0x18 }
  - { offsetInCU: 0xB09F, offset: 0x3EF9B, size: 0x8, addend: 0x0, symName: __ZNSt3__16chrono8durationIxNS_5ratioILl1ELl1000000000EEEEC1B8ue170006IxNS2_ILl1ELl1000EEEEERKNS1_IT_T0_EEPNS_9enable_ifIXaasr13__no_overflowIS8_S3_EE5valueooL_ZNS_17integral_constantIbLb0EE5valueEEaaeqsr13__no_overflowIS8_S3_E4typeE3denLi1Entsr23treat_as_floating_pointIS7_EE5valueEvE4typeE, symObjAddr: 0x40FC, symBinAddr: 0x10000B870, symSize: 0x3C }
  - { offsetInCU: 0xB0F4, offset: 0x3EFF0, size: 0x8, addend: 0x0, symName: __ZNSt3__16chrono8durationIxNS_5ratioILl1ELl1000000000EEEEC2B8ue170006IxNS2_ILl1ELl1000EEEEERKNS1_IT_T0_EEPNS_9enable_ifIXaasr13__no_overflowIS8_S3_EE5valueooL_ZNS_17integral_constantIbLb0EE5valueEEaaeqsr13__no_overflowIS8_S3_E4typeE3denLi1Entsr23treat_as_floating_pointIS7_EE5valueEvE4typeE, symObjAddr: 0x4138, symBinAddr: 0x10000B8AC, symSize: 0x50 }
  - { offsetInCU: 0xB149, offset: 0x3F045, size: 0x8, addend: 0x0, symName: __ZNSt3__16chrono15duration_valuesIxE3maxB8ue170006Ev, symObjAddr: 0x4188, symBinAddr: 0x10000B8FC, symSize: 0x14 }
  - { offsetInCU: 0xB15D, offset: 0x3F059, size: 0x8, addend: 0x0, symName: __ZNSt3__114numeric_limitsIxE3maxB8ue170006Ev, symObjAddr: 0x419C, symBinAddr: 0x10000B910, symSize: 0x14 }
  - { offsetInCU: 0xB171, offset: 0x3F06D, size: 0x8, addend: 0x0, symName: __ZNSt3__123__libcpp_numeric_limitsIxLb1EE3maxB8ue170006Ev, symObjAddr: 0x41B0, symBinAddr: 0x10000B924, symSize: 0x8 }
  - { offsetInCU: 0x7468, offset: 0x46579, size: 0x8, addend: 0x0, symName: __ZNSt3__1rsB8ue170006IcNS_11char_traitsIcEENS_9allocatorIcEEEERNS_13basic_istreamIT_T0_EES9_RNS_12basic_stringIS6_S7_T1_EE, symObjAddr: 0x2674, symBinAddr: 0x10000DE74, symSize: 0x30C }
  - { offsetInCU: 0x7535, offset: 0x46646, size: 0x8, addend: 0x0, symName: __ZNSt3__1eqB8ue170006IcNS_11char_traitsIcEENS_9allocatorIcEEEEbRKNS_12basic_stringIT_T0_T1_EEPKS6_, symObjAddr: 0x2980, symBinAddr: 0x10000E180, symSize: 0xAC }
  - { offsetInCU: 0x759C, offset: 0x466AD, size: 0x8, addend: 0x0, symName: __ZNSt3__1lsB8ue170006IcNS_11char_traitsIcEENS_9allocatorIcEEEERNS_13basic_ostreamIT_T0_EES9_RKNS_12basic_stringIS6_S7_T1_EE, symObjAddr: 0x334C, symBinAddr: 0x10000EA18, symSize: 0x4C }
  - { offsetInCU: 0x7777, offset: 0x46888, size: 0x8, addend: 0x0, symName: __ZNSt3__142__uninitialized_allocator_move_if_noexceptB8ue170006INS_9allocatorIiEENS_16reverse_iteratorIPiEES5_ivEET1_RT_T0_S9_S6_, symObjAddr: 0x48F4, symBinAddr: 0x10000F5D4, symSize: 0x78 }
  - { offsetInCU: 0x77F4, offset: 0x46905, size: 0x8, addend: 0x0, symName: __ZNSt3__14swapB8ue170006IPiEENS_9enable_ifIXaasr21is_move_constructibleIT_EE5valuesr18is_move_assignableIS3_EE5valueEvE4typeERS3_S6_, symObjAddr: 0x49B8, symBinAddr: 0x10000F698, symSize: 0x3C }
  - { offsetInCU: 0x7845, offset: 0x46956, size: 0x8, addend: 0x0, symName: __ZNSt3__14moveB8ue170006INS_16reverse_iteratorIPiEES3_EET0_T_S5_S4_, symObjAddr: 0x4AE8, symBinAddr: 0x10000F6D4, symSize: 0x78 }
  - { offsetInCU: 0x789F, offset: 0x469B0, size: 0x8, addend: 0x0, symName: __ZNSt3__16__moveB8ue170006INS_17_ClassicAlgPolicyENS_16reverse_iteratorIPiEES4_S4_EENS_4pairIT0_T2_EES6_T1_S7_, symObjAddr: 0x4B60, symBinAddr: 0x10000F74C, symSize: 0x64 }
  - { offsetInCU: 0x790B, offset: 0x46A1C, size: 0x8, addend: 0x0, symName: __ZNSt3__123__dispatch_copy_or_moveB8ue170006INS_17_ClassicAlgPolicyENS_11__move_loopIS1_EENS_14__move_trivialENS_16reverse_iteratorIPiEES7_S7_EENS_4pairIT2_T4_EES9_T3_SA_, symObjAddr: 0x4BC4, symBinAddr: 0x10000F7B0, symSize: 0x64 }
  - { offsetInCU: 0x7989, offset: 0x46A9A, size: 0x8, addend: 0x0, symName: __ZNSt3__121__unwrap_and_dispatchB8ue170006INS_10__overloadINS_11__move_loopINS_17_ClassicAlgPolicyEEENS_14__move_trivialEEENS_16reverse_iteratorIPiEES9_S9_Li0EEENS_4pairIT0_T2_EESB_T1_SC_, symObjAddr: 0x4C28, symBinAddr: 0x10000F814, symSize: 0x12C }
  - { offsetInCU: 0x7A19, offset: 0x46B2A, size: 0x8, addend: 0x0, symName: __ZNSt3__114__unwrap_rangeB8ue170006INS_16reverse_iteratorIPiEES3_EENS_4pairIT0_S5_EET_S7_, symObjAddr: 0x4D54, symBinAddr: 0x10000F940, symSize: 0x84 }
  - { offsetInCU: 0x7B8B, offset: 0x46C9C, size: 0x8, addend: 0x0, symName: __ZNSt3__113__unwrap_iterB8ue170006INS_16reverse_iteratorIPiEENS_18__unwrap_iter_implIS3_Lb0EEELi0EEEDTclsrT0_8__unwrapclsr3stdE7declvalIT_EEEES7_, symObjAddr: 0x4E78, symBinAddr: 0x10000FA64, symSize: 0x44 }
  - { offsetInCU: 0x7BCF, offset: 0x46CE0, size: 0x8, addend: 0x0, symName: __ZNSt3__19make_pairB8ue170006INS_16reverse_iteratorIPiEES3_EENS_4pairINS_18__unwrap_ref_decayIT_E4typeENS5_IT0_E4typeEEEOS6_OS9_, symObjAddr: 0x4EBC, symBinAddr: 0x10000FAA8, symSize: 0x38 }
  - { offsetInCU: 0x7C1E, offset: 0x46D2F, size: 0x8, addend: 0x0, symName: __ZNSt3__114__rewrap_rangeB8ue170006INS_16reverse_iteratorIPiEES3_EET_S4_T0_, symObjAddr: 0x4EF4, symBinAddr: 0x10000FAE0, symSize: 0x5C }
  - { offsetInCU: 0x7C6A, offset: 0x46D7B, size: 0x8, addend: 0x0, symName: __ZNSt3__113__rewrap_iterB8ue170006INS_16reverse_iteratorIPiEES3_NS_18__unwrap_iter_implIS3_Lb0EEEEET_S6_T0_, symObjAddr: 0x4F50, symBinAddr: 0x10000FB3C, symSize: 0x74 }
  - { offsetInCU: 0x7CBF, offset: 0x46DD0, size: 0x8, addend: 0x0, symName: __ZNSt3__1neB8ue170006IPiS1_EEbRKNS_16reverse_iteratorIT_EERKNS2_IT0_EE, symObjAddr: 0x4FC4, symBinAddr: 0x10000FBB0, symSize: 0x48 }
  - { offsetInCU: 0x7DBD, offset: 0x46ECE, size: 0x8, addend: 0x0, symName: __ZNSt3__122__make_exception_guardB8ue170006INS_6vectorIiNS_9allocatorIiEEE16__destroy_vectorEEENS_28__exception_guard_exceptionsIT_EES7_, symObjAddr: 0x57B8, symBinAddr: 0x100010134, symSize: 0x40 }
  - { offsetInCU: 0x8391, offset: 0x474A2, size: 0x8, addend: 0x0, symName: __ZNSt3__16vectorIiNS_9allocatorIiEEE26__swap_out_circular_bufferERNS_14__split_bufferIiRS2_EE, symObjAddr: 0x3D8C, symBinAddr: 0x10000F158, symSize: 0x110 }
  - { offsetInCU: 0xA498, offset: 0x495A9, size: 0x8, addend: 0x0, symName: _main, symObjAddr: 0x0, symBinAddr: 0x10000B92C, symSize: 0x2330 }
  - { offsetInCU: 0xA715, offset: 0x49826, size: 0x8, addend: 0x0, symName: __ZN10EfficiencyC1Ev, symObjAddr: 0x2364, symBinAddr: 0x10000DC5C, symSize: 0x2C }
  - { offsetInCU: 0xA85A, offset: 0x4996B, size: 0x8, addend: 0x0, symName: __ZNSt3__114basic_ifstreamIcNS_11char_traitsIcEEEC1ERKNS_12basic_stringIcS2_NS_9allocatorIcEEEEj, symObjAddr: 0x2390, symBinAddr: 0x10000DC88, symSize: 0x16C }
  - { offsetInCU: 0xA8A3, offset: 0x499B4, size: 0x8, addend: 0x0, symName: __ZNKSt3__19basic_iosIcNS_11char_traitsIcEEE4goodB8ue170006Ev, symObjAddr: 0x24FC, symBinAddr: 0x10000DDF4, symSize: 0x28 }
  - { offsetInCU: 0xA8C8, offset: 0x499D9, size: 0x8, addend: 0x0, symName: __ZNSt3__114basic_ifstreamIcNS_11char_traitsIcEEE5closeEv, symObjAddr: 0x2524, symBinAddr: 0x10000DE1C, symSize: 0x58 }
  - { offsetInCU: 0xAE15, offset: 0x49F26, size: 0x8, addend: 0x0, symName: __ZN5State8loadGameER11PlayerPizzaR13CustomerPizzaNSt3__112basic_stringIcNS4_11char_traitsIcEENS4_9allocatorIcEEEER10Efficiency, symObjAddr: 0x2A2C, symBinAddr: 0x10000E22C, symSize: 0x3B8 }
  - { offsetInCU: 0xAF39, offset: 0x4A04A, size: 0x8, addend: 0x0, symName: __ZN5State8saveGameER11PlayerPizzaR13CustomerPizzaNSt3__112basic_stringIcNS4_11char_traitsIcEENS4_9allocatorIcEEEEiR10Efficiency, symObjAddr: 0x2EF0, symBinAddr: 0x10000E5E4, symSize: 0x3BC }
  - { offsetInCU: 0xB05D, offset: 0x4A16E, size: 0x8, addend: 0x0, symName: __ZNSt3__19basic_iosIcNS_11char_traitsIcEEE5clearB8ue170006Ej, symObjAddr: 0x32AC, symBinAddr: 0x10000E9A0, symSize: 0x2C }
  - { offsetInCU: 0xB091, offset: 0x4A1A2, size: 0x8, addend: 0x0, symName: __ZNKSt3__16vectorIiNS_9allocatorIiEEEixB8ue170006Em, symObjAddr: 0x32D8, symBinAddr: 0x10000E9CC, symSize: 0x24 }
  - { offsetInCU: 0xB0C7, offset: 0x4A1D8, size: 0x8, addend: 0x0, symName: __ZNKSt3__16vectorIP7ToppingNS_9allocatorIS2_EEE5emptyB8ue170006Ev, symObjAddr: 0x32FC, symBinAddr: 0x10000E9F0, symSize: 0x28 }
  - { offsetInCU: 0xB0EC, offset: 0x4A1FD, size: 0x8, addend: 0x0, symName: __ZNKSt3__16vectorIP7ToppingNS_9allocatorIS2_EEEixB8ue170006Em, symObjAddr: 0x3398, symBinAddr: 0x10000EA64, symSize: 0x24 }
  - { offsetInCU: 0xB122, offset: 0x4A233, size: 0x8, addend: 0x0, symName: __ZNKSt3__19basic_iosIcNS_11char_traitsIcEEEntB8ue170006Ev, symObjAddr: 0x33BC, symBinAddr: 0x10000EA88, symSize: 0x28 }
  - { offsetInCU: 0xB147, offset: 0x4A258, size: 0x8, addend: 0x0, symName: __ZNKSt3__19basic_iosIcNS_11char_traitsIcEEEcvbB8ue170006Ev, symObjAddr: 0x33E4, symBinAddr: 0x10000EAB0, symSize: 0x2C }
  - { offsetInCU: 0xB16C, offset: 0x4A27D, size: 0x8, addend: 0x0, symName: __ZN10EfficiencyD1Ev, symObjAddr: 0x3410, symBinAddr: 0x10000EADC, symSize: 0x2C }
  - { offsetInCU: 0xB1AE, offset: 0x4A2BF, size: 0x8, addend: 0x0, symName: __ZNSt3__114basic_ofstreamIcNS_11char_traitsIcEEEC1EPKcj, symObjAddr: 0x343C, symBinAddr: 0x10000EB08, symSize: 0x16C }
  - { offsetInCU: 0xB1FC, offset: 0x4A30D, size: 0x8, addend: 0x0, symName: __ZNSt3__114basic_ofstreamIcNS_11char_traitsIcEEED1Ev, symObjAddr: 0x35A8, symBinAddr: 0x10000EC74, symSize: 0x40 }
  - { offsetInCU: 0xB22D, offset: 0x4A33E, size: 0x8, addend: 0x0, symName: __ZNSt3__114basic_ifstreamIcNS_11char_traitsIcEEED1Ev, symObjAddr: 0x35E8, symBinAddr: 0x10000ECB4, symSize: 0x40 }
  - { offsetInCU: 0xB259, offset: 0x4A36A, size: 0x8, addend: 0x0, symName: __ZN13CustomerPizzaD1Ev, symObjAddr: 0x3628, symBinAddr: 0x10000ECF4, symSize: 0x2C }
  - { offsetInCU: 0xB284, offset: 0x4A395, size: 0x8, addend: 0x0, symName: __ZN11PlayerPizzaD1Ev, symObjAddr: 0x3654, symBinAddr: 0x10000ED20, symSize: 0x2C }
  - { offsetInCU: 0xB2AF, offset: 0x4A3C0, size: 0x8, addend: 0x0, symName: __ZN10EfficiencyC2Ev, symObjAddr: 0x3680, symBinAddr: 0x10000ED4C, symSize: 0x28 }
  - { offsetInCU: 0xB2D8, offset: 0x4A3E9, size: 0x8, addend: 0x0, symName: __ZNSt3__16vectorIiNS_9allocatorIiEEE6resizeEm, symObjAddr: 0x36D4, symBinAddr: 0x10000ED74, symSize: 0x94 }
  - { offsetInCU: 0xB31C, offset: 0x4A42D, size: 0x8, addend: 0x0, symName: __ZNSt3__16vectorIiNS_9allocatorIiEEE4dataB8ue170006Ev, symObjAddr: 0x3768, symBinAddr: 0x10000EE08, symSize: 0x28 }
  - { offsetInCU: 0xB341, offset: 0x4A452, size: 0x8, addend: 0x0, symName: __ZNSt3__16vectorIiNS_9allocatorIiEEEC1ERKS3_, symObjAddr: 0x3790, symBinAddr: 0x10000EE30, symSize: 0x34 }
  - { offsetInCU: 0xB37B, offset: 0x4A48C, size: 0x8, addend: 0x0, symName: __ZNSt3__16vectorIiNS_9allocatorIiEEED1B8ue170006Ev, symObjAddr: 0x37C4, symBinAddr: 0x10000EE64, symSize: 0x2C }
  - { offsetInCU: 0xB3AE, offset: 0x4A4BF, size: 0x8, addend: 0x0, symName: __ZNSt3__16vectorIiNS_9allocatorIiEEE8__appendEm, symObjAddr: 0x3974, symBinAddr: 0x10000EE90, symSize: 0x108 }
  - { offsetInCU: 0xB407, offset: 0x4A518, size: 0x8, addend: 0x0, symName: __ZNSt3__16vectorIiNS_9allocatorIiEEE18__construct_at_endEm, symObjAddr: 0x3AF0, symBinAddr: 0x10000EF98, symSize: 0xC8 }
  - { offsetInCU: 0xB478, offset: 0x4A589, size: 0x8, addend: 0x0, symName: __ZNSt3__114__split_bufferIiRNS_9allocatorIiEEEC1EmmS3_, symObjAddr: 0x3C94, symBinAddr: 0x10000F060, symSize: 0x44 }
  - { offsetInCU: 0xB4CD, offset: 0x4A5DE, size: 0x8, addend: 0x0, symName: __ZNSt3__114__split_bufferIiRNS_9allocatorIiEEE18__construct_at_endEm, symObjAddr: 0x3CD8, symBinAddr: 0x10000F0A4, symSize: 0xB4 }
  - { offsetInCU: 0xB510, offset: 0x4A621, size: 0x8, addend: 0x0, symName: __ZNSt3__114__split_bufferIiRNS_9allocatorIiEEED1Ev, symObjAddr: 0x3E9C, symBinAddr: 0x10000F268, symSize: 0x2C }
  - { offsetInCU: 0xB554, offset: 0x4A665, size: 0x8, addend: 0x0, symName: __ZNSt3__116allocator_traitsINS_9allocatorIiEEE9constructB8ue170006IiJEvEEvRS2_PT_DpOT0_, symObjAddr: 0x3F3C, symBinAddr: 0x10000F294, symSize: 0x2C }
  - { offsetInCU: 0xB596, offset: 0x4A6A7, size: 0x8, addend: 0x0, symName: __ZNSt3__19allocatorIiE9constructB8ue170006IiJEEEvPT_DpOT0_, symObjAddr: 0x3FEC, symBinAddr: 0x10000F2C0, symSize: 0x1C }
  - { offsetInCU: 0xB5E1, offset: 0x4A6F2, size: 0x8, addend: 0x0, symName: __ZNSt3__114__split_bufferIiRNS_9allocatorIiEEEC2EmmS3_, symObjAddr: 0x442C, symBinAddr: 0x10000F2DC, symSize: 0xD4 }
  - { offsetInCU: 0xB654, offset: 0x4A765, size: 0x8, addend: 0x0, symName: __ZNSt3__117__compressed_pairIPiRNS_9allocatorIiEEEC1B8ue170006IDnS4_EEOT_OT0_, symObjAddr: 0x4500, symBinAddr: 0x10000F3B0, symSize: 0x3C }
  - { offsetInCU: 0xB6AB, offset: 0x4A7BC, size: 0x8, addend: 0x0, symName: __ZNSt3__114__split_bufferIiRNS_9allocatorIiEEE7__allocB8ue170006Ev, symObjAddr: 0x457C, symBinAddr: 0x10000F3EC, symSize: 0x28 }
  - { offsetInCU: 0xB6D0, offset: 0x4A7E1, size: 0x8, addend: 0x0, symName: __ZNSt3__114__split_bufferIiRNS_9allocatorIiEEE9__end_capB8ue170006Ev, symObjAddr: 0x45A4, symBinAddr: 0x10000F414, symSize: 0x28 }
  - { offsetInCU: 0xB6F5, offset: 0x4A806, size: 0x8, addend: 0x0, symName: __ZNSt3__117__compressed_pairIPiRNS_9allocatorIiEEEC2B8ue170006IDnS4_EEOT_OT0_, symObjAddr: 0x45CC, symBinAddr: 0x10000F43C, symSize: 0x48 }
  - { offsetInCU: 0xB74C, offset: 0x4A85D, size: 0x8, addend: 0x0, symName: __ZNSt3__122__compressed_pair_elemIRNS_9allocatorIiEELi1ELb0EEC2B8ue170006IS3_vEEOT_, symObjAddr: 0x4614, symBinAddr: 0x10000F484, symSize: 0x20 }
  - { offsetInCU: 0xB78D, offset: 0x4A89E, size: 0x8, addend: 0x0, symName: __ZNSt3__117__compressed_pairIPiRNS_9allocatorIiEEE6secondB8ue170006Ev, symObjAddr: 0x470C, symBinAddr: 0x10000F4A4, symSize: 0x28 }
  - { offsetInCU: 0xB7B2, offset: 0x4A8C3, size: 0x8, addend: 0x0, symName: __ZNSt3__122__compressed_pair_elemIRNS_9allocatorIiEELi1ELb0EE5__getB8ue170006Ev, symObjAddr: 0x4734, symBinAddr: 0x10000F4CC, symSize: 0x18 }
  - { offsetInCU: 0xB7D7, offset: 0x4A8E8, size: 0x8, addend: 0x0, symName: __ZNSt3__117__compressed_pairIPiRNS_9allocatorIiEEE5firstB8ue170006Ev, symObjAddr: 0x474C, symBinAddr: 0x10000F4E4, symSize: 0x24 }
  - { offsetInCU: 0xB806, offset: 0x4A917, size: 0x8, addend: 0x0, symName: __ZNSt3__114__split_bufferIiRNS_9allocatorIiEEE21_ConstructTransactionC1B8ue170006EPPim, symObjAddr: 0x4770, symBinAddr: 0x10000F508, symSize: 0x3C }
  - { offsetInCU: 0xB84B, offset: 0x4A95C, size: 0x8, addend: 0x0, symName: __ZNSt3__114__split_bufferIiRNS_9allocatorIiEEE21_ConstructTransactionD1B8ue170006Ev, symObjAddr: 0x47AC, symBinAddr: 0x10000F544, symSize: 0x2C }
  - { offsetInCU: 0xB874, offset: 0x4A985, size: 0x8, addend: 0x0, symName: __ZNSt3__114__split_bufferIiRNS_9allocatorIiEEE21_ConstructTransactionC2B8ue170006EPPim, symObjAddr: 0x47D8, symBinAddr: 0x10000F570, symSize: 0x44 }
  - { offsetInCU: 0xB8B9, offset: 0x4A9CA, size: 0x8, addend: 0x0, symName: __ZNSt3__114__split_bufferIiRNS_9allocatorIiEEE21_ConstructTransactionD2B8ue170006Ev, symObjAddr: 0x481C, symBinAddr: 0x10000F5B4, symSize: 0x20 }
  - { offsetInCU: 0xB8E2, offset: 0x4A9F3, size: 0x8, addend: 0x0, symName: __ZNSt3__116reverse_iteratorIPiEC1B8ue170006ES1_, symObjAddr: 0x496C, symBinAddr: 0x10000F64C, symSize: 0x34 }
  - { offsetInCU: 0xB919, offset: 0x4AA2A, size: 0x8, addend: 0x0, symName: __ZNKSt3__116reverse_iteratorIPiE4baseB8ue170006Ev, symObjAddr: 0x49A0, symBinAddr: 0x10000F680, symSize: 0x18 }
  - { offsetInCU: 0xB961, offset: 0x4AA72, size: 0x8, addend: 0x0, symName: __ZNKSt3__111__move_loopINS_17_ClassicAlgPolicyEEclB8ue170006INS_16reverse_iteratorIPiEES6_S6_EENS_4pairIT_T1_EES8_T0_S9_, symObjAddr: 0x4DD8, symBinAddr: 0x10000F9C4, symSize: 0xA0 }
  - { offsetInCU: 0xB9D0, offset: 0x4AAE1, size: 0x8, addend: 0x0, symName: __ZNSt3__18_IterOpsINS_17_ClassicAlgPolicyEE11__iter_moveB8ue170006IRNS_16reverse_iteratorIPiEEEENS_9enable_ifIXsr12is_referenceIDTdeclsr3stdE7declvalIRT_EEEEE5valueEDTclsr3stdE4movedeclsr3stdE7declvalISA_EEEEE4typeEOS9_, symObjAddr: 0x500C, symBinAddr: 0x10000FBF8, symSize: 0x28 }
  - { offsetInCU: 0xB9FC, offset: 0x4AB0D, size: 0x8, addend: 0x0, symName: __ZNKSt3__116reverse_iteratorIPiEdeB8ue170006Ev, symObjAddr: 0x5034, symBinAddr: 0x10000FC20, symSize: 0x28 }
  - { offsetInCU: 0xBA2F, offset: 0x4AB40, size: 0x8, addend: 0x0, symName: __ZNSt3__116reverse_iteratorIPiEppB8ue170006Ev, symObjAddr: 0x505C, symBinAddr: 0x10000FC48, symSize: 0x20 }
  - { offsetInCU: 0xBA54, offset: 0x4AB65, size: 0x8, addend: 0x0, symName: __ZNSt3__18_IterOpsINS_17_ClassicAlgPolicyEE25__validate_iter_referenceB8ue170006IRNS_16reverse_iteratorIPiEEEEvv, symObjAddr: 0x507C, symBinAddr: 0x10000FC68, symSize: 0x4 }
  - { offsetInCU: 0xBA72, offset: 0x4AB83, size: 0x8, addend: 0x0, symName: __ZNSt3__118__unwrap_iter_implINS_16reverse_iteratorIPiEELb0EE8__unwrapB8ue170006ES3_, symObjAddr: 0x5080, symBinAddr: 0x10000FC6C, symSize: 0x24 }
  - { offsetInCU: 0xBA9A, offset: 0x4ABAB, size: 0x8, addend: 0x0, symName: __ZNSt3__14pairINS_16reverse_iteratorIPiEES3_EC1B8ue170006IS3_S3_LPv0EEEOT_OT0_, symObjAddr: 0x50A4, symBinAddr: 0x10000FC90, symSize: 0x3C }
  - { offsetInCU: 0xBAF7, offset: 0x4AC08, size: 0x8, addend: 0x0, symName: __ZNSt3__14pairINS_16reverse_iteratorIPiEES3_EC2B8ue170006IS3_S3_LPv0EEEOT_OT0_, symObjAddr: 0x50E0, symBinAddr: 0x10000FCCC, symSize: 0x34 }
  - { offsetInCU: 0xBB54, offset: 0x4AC65, size: 0x8, addend: 0x0, symName: __ZNSt3__118__unwrap_iter_implINS_16reverse_iteratorIPiEELb0EE8__rewrapB8ue170006ES3_S3_, symObjAddr: 0x5114, symBinAddr: 0x10000FD00, symSize: 0x2C }
  - { offsetInCU: 0xBB82, offset: 0x4AC93, size: 0x8, addend: 0x0, symName: __ZNSt3__116reverse_iteratorIPiEC2B8ue170006ES1_, symObjAddr: 0x5140, symBinAddr: 0x10000FD2C, symSize: 0x28 }
  - { offsetInCU: 0xBBB9, offset: 0x4ACCA, size: 0x8, addend: 0x0, symName: __ZNSt3__114__split_bufferIiRNS_9allocatorIiEEED2Ev, symObjAddr: 0x5168, symBinAddr: 0x10000FD54, symSize: 0x8C }
  - { offsetInCU: 0xBBE4, offset: 0x4ACF5, size: 0x8, addend: 0x0, symName: __ZNSt3__114__split_bufferIiRNS_9allocatorIiEEE5clearB8ue170006Ev, symObjAddr: 0x51F4, symBinAddr: 0x10000FDE0, symSize: 0x28 }
  - { offsetInCU: 0xBC09, offset: 0x4AD1A, size: 0x8, addend: 0x0, symName: __ZNKSt3__114__split_bufferIiRNS_9allocatorIiEEE8capacityB8ue170006Ev, symObjAddr: 0x5250, symBinAddr: 0x10000FE08, symSize: 0x40 }
  - { offsetInCU: 0xBC2E, offset: 0x4AD3F, size: 0x8, addend: 0x0, symName: __ZNSt3__114__split_bufferIiRNS_9allocatorIiEEE17__destruct_at_endB8ue170006EPi, symObjAddr: 0x5290, symBinAddr: 0x10000FE48, symSize: 0x2C }
  - { offsetInCU: 0xBC61, offset: 0x4AD72, size: 0x8, addend: 0x0, symName: __ZNSt3__114__split_bufferIiRNS_9allocatorIiEEE17__destruct_at_endB8ue170006EPiNS_17integral_constantIbLb0EEE, symObjAddr: 0x52BC, symBinAddr: 0x10000FE74, symSize: 0x80 }
  - { offsetInCU: 0xBCA0, offset: 0x4ADB1, size: 0x8, addend: 0x0, symName: __ZNKSt3__114__split_bufferIiRNS_9allocatorIiEEE9__end_capB8ue170006Ev, symObjAddr: 0x5438, symBinAddr: 0x10000FEF4, symSize: 0x28 }
  - { offsetInCU: 0xBCC5, offset: 0x4ADD6, size: 0x8, addend: 0x0, symName: __ZNKSt3__117__compressed_pairIPiRNS_9allocatorIiEEE5firstB8ue170006Ev, symObjAddr: 0x5460, symBinAddr: 0x10000FF1C, symSize: 0x24 }
  - { offsetInCU: 0xBCEA, offset: 0x4ADFB, size: 0x8, addend: 0x0, symName: __ZNSt3__16vectorIiNS_9allocatorIiEEEC2ERKS3_, symObjAddr: 0x55C4, symBinAddr: 0x10000FF40, symSize: 0x94 }
  - { offsetInCU: 0xBD24, offset: 0x4AE35, size: 0x8, addend: 0x0, symName: __ZNSt3__116allocator_traitsINS_9allocatorIiEEE37select_on_container_copy_constructionB8ue170006IS2_vvEES2_RKS2_, symObjAddr: 0x5658, symBinAddr: 0x10000FFD4, symSize: 0x10 }
  - { offsetInCU: 0xBD58, offset: 0x4AE69, size: 0x8, addend: 0x0, symName: __ZNSt3__117__compressed_pairIPiNS_9allocatorIiEEEC1B8ue170006IDnS3_EEOT_OT0_, symObjAddr: 0x5668, symBinAddr: 0x10000FFE4, symSize: 0x3C }
  - { offsetInCU: 0xBDAF, offset: 0x4AEC0, size: 0x8, addend: 0x0, symName: __ZNSt3__16vectorIiNS_9allocatorIiEEE16__init_with_sizeB8ue170006IPiS5_EEvT_T0_m, symObjAddr: 0x56A4, symBinAddr: 0x100010020, symSize: 0xB8 }
  - { offsetInCU: 0xBE22, offset: 0x4AF33, size: 0x8, addend: 0x0, symName: __ZNSt3__117__compressed_pairIPiNS_9allocatorIiEEEC2B8ue170006IDnS3_EEOT_OT0_, symObjAddr: 0x575C, symBinAddr: 0x1000100D8, symSize: 0x44 }
  - { offsetInCU: 0xBE79, offset: 0x4AF8A, size: 0x8, addend: 0x0, symName: __ZNSt3__122__compressed_pair_elemINS_9allocatorIiEELi1ELb1EEC2B8ue170006IS2_vEEOT_, symObjAddr: 0x57A0, symBinAddr: 0x10001011C, symSize: 0x18 }
  - { offsetInCU: 0xBEBA, offset: 0x4AFCB, size: 0x8, addend: 0x0, symName: __ZNSt3__16vectorIiNS_9allocatorIiEEE16__destroy_vectorC1B8ue170006ERS3_, symObjAddr: 0x57F8, symBinAddr: 0x100010174, symSize: 0x34 }
  - { offsetInCU: 0xBEF2, offset: 0x4B003, size: 0x8, addend: 0x0, symName: __ZNSt3__128__exception_guard_exceptionsINS_6vectorIiNS_9allocatorIiEEE16__destroy_vectorEE10__completeB8ue170006Ev, symObjAddr: 0x5964, symBinAddr: 0x1000101A8, symSize: 0x1C }
  - { offsetInCU: 0xBF17, offset: 0x4B028, size: 0x8, addend: 0x0, symName: __ZNSt3__128__exception_guard_exceptionsINS_6vectorIiNS_9allocatorIiEEE16__destroy_vectorEED1B8ue170006Ev, symObjAddr: 0x5980, symBinAddr: 0x1000101C4, symSize: 0x2C }
  - { offsetInCU: 0xBF40, offset: 0x4B051, size: 0x8, addend: 0x0, symName: __ZNSt3__128__exception_guard_exceptionsINS_6vectorIiNS_9allocatorIiEEE16__destroy_vectorEEC1B8ue170006ES5_, symObjAddr: 0x59AC, symBinAddr: 0x1000101F0, symSize: 0x34 }
  - { offsetInCU: 0xBF77, offset: 0x4B088, size: 0x8, addend: 0x0, symName: __ZNSt3__128__exception_guard_exceptionsINS_6vectorIiNS_9allocatorIiEEE16__destroy_vectorEEC2B8ue170006ES5_, symObjAddr: 0x59E0, symBinAddr: 0x100010224, symSize: 0x24 }
  - { offsetInCU: 0xBFAE, offset: 0x4B0BF, size: 0x8, addend: 0x0, symName: __ZNSt3__16vectorIiNS_9allocatorIiEEE16__destroy_vectorC2B8ue170006ERS3_, symObjAddr: 0x5A04, symBinAddr: 0x100010248, symSize: 0x20 }
  - { offsetInCU: 0xBFE6, offset: 0x4B0F7, size: 0x8, addend: 0x0, symName: __ZNSt3__128__exception_guard_exceptionsINS_6vectorIiNS_9allocatorIiEEE16__destroy_vectorEED2B8ue170006Ev, symObjAddr: 0x6034, symBinAddr: 0x100010268, symSize: 0x50 }
  - { offsetInCU: 0xC00F, offset: 0x4B120, size: 0x8, addend: 0x0, symName: __ZNSt3__16vectorIiNS_9allocatorIiEEE16__destroy_vectorclB8ue170006Ev, symObjAddr: 0x6084, symBinAddr: 0x1000102B8, symSize: 0x90 }
  - { offsetInCU: 0xC034, offset: 0x4B145, size: 0x8, addend: 0x0, symName: __ZNSt3__16vectorIiNS_9allocatorIiEEED2B8ue170006Ev, symObjAddr: 0x613C, symBinAddr: 0x100010348, symSize: 0x40 }
  - { offsetInCU: 0xC05D, offset: 0x4B16E, size: 0x8, addend: 0x0, symName: __ZNSt3__114basic_ofstreamIcNS_11char_traitsIcEEEC1ERKNS_12basic_stringIcS2_NS_9allocatorIcEEEEj, symObjAddr: 0x61AC, symBinAddr: 0x100010388, symSize: 0x16C }
  - { offsetInCU: 0xC0A6, offset: 0x4B1B7, size: 0x8, addend: 0x0, symName: __ZNSt3__114basic_ofstreamIcNS_11char_traitsIcEEE5closeEv, symObjAddr: 0x6318, symBinAddr: 0x1000104F4, symSize: 0x58 }
  - { offsetInCU: 0xC0CC, offset: 0x4B1DD, size: 0x8, addend: 0x0, symName: __ZNSt3__19basic_iosIcNS_11char_traitsIcEEEC2B8ue170006Ev, symObjAddr: 0x6370, symBinAddr: 0x10001054C, symSize: 0x44 }
  - { offsetInCU: 0xC0F5, offset: 0x4B206, size: 0x8, addend: 0x0, symName: __ZNSt3__113basic_ostreamIcNS_11char_traitsIcEEEC2B8ue170006EPNS_15basic_streambufIcS2_EE, symObjAddr: 0x63B4, symBinAddr: 0x100010590, symSize: 0x60 }
  - { offsetInCU: 0xC138, offset: 0x4B249, size: 0x8, addend: 0x0, symName: __ZNSt3__113basic_filebufIcNS_11char_traitsIcEEE4openERKNS_12basic_stringIcS2_NS_9allocatorIcEEEEj, symObjAddr: 0x6414, symBinAddr: 0x1000105F0, symSize: 0x44 }
  - { offsetInCU: 0xC17A, offset: 0x4B28B, size: 0x8, addend: 0x0, symName: __ZNSt3__18ios_baseC2B8ue170006Ev, symObjAddr: 0x6484, symBinAddr: 0x100010634, symSize: 0x24 }
  - { offsetInCU: 0xC1A3, offset: 0x4B2B4, size: 0x8, addend: 0x0, symName: __ZNSt3__19basic_iosIcNS_11char_traitsIcEEE4initB8ue170006EPNS_15basic_streambufIcS2_EE, symObjAddr: 0x64A8, symBinAddr: 0x100010658, symSize: 0x44 }
  - { offsetInCU: 0xC1D8, offset: 0x4B2E9, size: 0x8, addend: 0x0, symName: __ZNKSt3__112basic_stringIcNS_11char_traitsIcEENS_9allocatorIcEEE5c_strB8ue170006Ev, symObjAddr: 0x64F4, symBinAddr: 0x10001069C, symSize: 0x24 }
  - { offsetInCU: 0xC1FD, offset: 0x4B30E, size: 0x8, addend: 0x0, symName: __ZN10EfficiencyD2Ev, symObjAddr: 0x66B0, symBinAddr: 0x1000106C0, symSize: 0x14 }
  - { offsetInCU: 0xC226, offset: 0x4B337, size: 0x8, addend: 0x0, symName: __ZNSt3__114basic_ofstreamIcNS_11char_traitsIcEEED2Ev, symObjAddr: 0x66C4, symBinAddr: 0x1000106D4, symSize: 0x64 }
  - { offsetInCU: 0xC25E, offset: 0x4B36F, size: 0x8, addend: 0x0, symName: __ZTv0_n24_NSt3__114basic_ofstreamIcNS_11char_traitsIcEEED1Ev, symObjAddr: 0x6728, symBinAddr: 0x100010738, symSize: 0x28 }
  - { offsetInCU: 0xC275, offset: 0x4B386, size: 0x8, addend: 0x0, symName: __ZNSt3__114basic_ifstreamIcNS_11char_traitsIcEEED2Ev, symObjAddr: 0x6750, symBinAddr: 0x100010760, symSize: 0x64 }
  - { offsetInCU: 0xC2AD, offset: 0x4B3BE, size: 0x8, addend: 0x0, symName: __ZTv0_n24_NSt3__114basic_ifstreamIcNS_11char_traitsIcEEED1Ev, symObjAddr: 0x67B4, symBinAddr: 0x1000107C4, symSize: 0x28 }
  - { offsetInCU: 0xC2C4, offset: 0x4B3D5, size: 0x8, addend: 0x0, symName: __ZN13CustomerPizzaD2Ev, symObjAddr: 0x67DC, symBinAddr: 0x1000107EC, symSize: 0x48 }
  - { offsetInCU: 0xC2EF, offset: 0x4B400, size: 0x8, addend: 0x0, symName: __ZN11PlayerPizzaD2Ev, symObjAddr: 0x6824, symBinAddr: 0x100010834, symSize: 0x2C }
  - { offsetInCU: 0xC31A, offset: 0x4B42B, size: 0x8, addend: 0x0, symName: __ZNKSt3__19basic_iosIcNS_11char_traitsIcEEE4failB8ue170006Ev, symObjAddr: 0x6A08, symBinAddr: 0x100010860, symSize: 0x28 }
  - { offsetInCU: 0xC33F, offset: 0x4B450, size: 0x8, addend: 0x0, symName: __ZNKSt3__18ios_base4failB8ue170006Ev, symObjAddr: 0x6A30, symBinAddr: 0x100010888, symSize: 0x28 }
  - { offsetInCU: 0xC389, offset: 0x4B49A, size: 0x8, addend: 0x0, symName: __ZNSt3__113basic_istreamIcNS_11char_traitsIcEEEC2B8ue170006EPNS_15basic_streambufIcS2_EE, symObjAddr: 0x7274, symBinAddr: 0x1000108B0, symSize: 0x64 }
  - { offsetInCU: 0xC3CC, offset: 0x4B4DD, size: 0x8, addend: 0x0, symName: __ZNKSt3__18ios_base4goodB8ue170006Ev, symObjAddr: 0x7330, symBinAddr: 0x100010914, symSize: 0x24 }
  - { offsetInCU: 0xC411, offset: 0x4B522, size: 0x8, addend: 0x0, symName: __ZNKSt3__113basic_istreamIcNS_11char_traitsIcEEE6sentrycvbB8ue170006Ev, symObjAddr: 0x7354, symBinAddr: 0x100010938, symSize: 0x1C }
  - { offsetInCU: 0xC436, offset: 0x4B547, size: 0x8, addend: 0x0, symName: __ZNSt3__112basic_stringIcNS_11char_traitsIcEENS_9allocatorIcEEE5clearB8ue170006Ev, symObjAddr: 0x7370, symBinAddr: 0x100010954, symSize: 0x78 }
  - { offsetInCU: 0xC45C, offset: 0x4B56D, size: 0x8, addend: 0x0, symName: __ZNKSt3__112basic_stringIcNS_11char_traitsIcEENS_9allocatorIcEEE8max_sizeB8ue170006Ev, symObjAddr: 0x73E8, symBinAddr: 0x1000109CC, symSize: 0xAC }
  - { offsetInCU: 0xC4AE, offset: 0x4B5BF, size: 0x8, addend: 0x0, symName: __ZNSt3__115basic_streambufIcNS_11char_traitsIcEEE5sgetcB8ue170006Ev, symObjAddr: 0x7494, symBinAddr: 0x100010A78, symSize: 0x70 }
  - { offsetInCU: 0xC4D3, offset: 0x4B5E4, size: 0x8, addend: 0x0, symName: __ZNSt3__111char_traitsIcE12to_char_typeB8ue170006Ei, symObjAddr: 0x7504, symBinAddr: 0x100010AE8, symSize: 0x18 }
  - { offsetInCU: 0xC4F6, offset: 0x4B607, size: 0x8, addend: 0x0, symName: __ZNKSt3__15ctypeIcE2isB8ue170006Ejc, symObjAddr: 0x751C, symBinAddr: 0x100010B00, symSize: 0x7C }
  - { offsetInCU: 0xC539, offset: 0x4B64A, size: 0x8, addend: 0x0, symName: __ZNSt3__115basic_streambufIcNS_11char_traitsIcEEE6sbumpcB8ue170006Ev, symObjAddr: 0x7598, symBinAddr: 0x100010B7C, symSize: 0x78 }
  - { offsetInCU: 0xC55E, offset: 0x4B66F, size: 0x8, addend: 0x0, symName: __ZNSt3__18ios_base18__setstate_nothrowB8ue170006Ej, symObjAddr: 0x7610, symBinAddr: 0x100010BF4, symSize: 0x64 }
  - { offsetInCU: 0xC592, offset: 0x4B6A3, size: 0x8, addend: 0x0, symName: __ZNKSt3__19basic_iosIcNS_11char_traitsIcEEE10exceptionsB8ue170006Ev, symObjAddr: 0x7674, symBinAddr: 0x100010C58, symSize: 0x24 }
  - { offsetInCU: 0xC5B7, offset: 0x4B6C8, size: 0x8, addend: 0x0, symName: __ZNSt3__111char_traitsIcE6assignB8ue170006ERcRKc, symObjAddr: 0x7698, symBinAddr: 0x100010C7C, symSize: 0x24 }
  - { offsetInCU: 0xC5E8, offset: 0x4B6F9, size: 0x8, addend: 0x0, symName: __ZNSt3__112basic_stringIcNS_11char_traitsIcEENS_9allocatorIcEEE18__get_long_pointerB8ue170006Ev, symObjAddr: 0x76BC, symBinAddr: 0x100010CA0, symSize: 0x28 }
  - { offsetInCU: 0xC60D, offset: 0x4B71E, size: 0x8, addend: 0x0, symName: __ZNSt3__112basic_stringIcNS_11char_traitsIcEENS_9allocatorIcEEE15__set_long_sizeB8ue170006Em, symObjAddr: 0x76E4, symBinAddr: 0x100010CC8, symSize: 0x38 }
  - { offsetInCU: 0xC641, offset: 0x4B752, size: 0x8, addend: 0x0, symName: __ZNSt3__112basic_stringIcNS_11char_traitsIcEENS_9allocatorIcEEE19__get_short_pointerB8ue170006Ev, symObjAddr: 0x771C, symBinAddr: 0x100010D00, symSize: 0x28 }
  - { offsetInCU: 0xC666, offset: 0x4B777, size: 0x8, addend: 0x0, symName: __ZNSt3__112basic_stringIcNS_11char_traitsIcEENS_9allocatorIcEEE16__set_short_sizeB8ue170006Em, symObjAddr: 0x7744, symBinAddr: 0x100010D28, symSize: 0x78 }
  - { offsetInCU: 0xC69A, offset: 0x4B7AB, size: 0x8, addend: 0x0, symName: __ZNSt3__114pointer_traitsIPcE10pointer_toB8ue170006ERc, symObjAddr: 0x77BC, symBinAddr: 0x100010DA0, symSize: 0x14 }
  - { offsetInCU: 0xC6C7, offset: 0x4B7D8, size: 0x8, addend: 0x0, symName: __ZNSt3__116allocator_traitsINS_9allocatorIcEEE8max_sizeB8ue170006IS2_vEEmRKS2_, symObjAddr: 0x77D0, symBinAddr: 0x100010DB4, symSize: 0x24 }
  - { offsetInCU: 0xC6F5, offset: 0x4B806, size: 0x8, addend: 0x0, symName: __ZNKSt3__112basic_stringIcNS_11char_traitsIcEENS_9allocatorIcEEE7__allocB8ue170006Ev, symObjAddr: 0x77F4, symBinAddr: 0x100010DD8, symSize: 0x24 }
  - { offsetInCU: 0xC71A, offset: 0x4B82B, size: 0x8, addend: 0x0, symName: __ZNSt3__114numeric_limitsImE3maxB8ue170006Ev, symObjAddr: 0x7818, symBinAddr: 0x100010DFC, symSize: 0x14 }
  - { offsetInCU: 0xC72E, offset: 0x4B83F, size: 0x8, addend: 0x0, symName: __ZNKSt3__19allocatorIcE8max_sizeB8ue170006Ev, symObjAddr: 0x782C, symBinAddr: 0x100010E10, symSize: 0x14 }
  - { offsetInCU: 0xC753, offset: 0x4B864, size: 0x8, addend: 0x0, symName: __ZNKSt3__117__compressed_pairINS_12basic_stringIcNS_11char_traitsIcEENS_9allocatorIcEEE5__repES5_E6secondB8ue170006Ev, symObjAddr: 0x7840, symBinAddr: 0x100010E24, symSize: 0x24 }
  - { offsetInCU: 0xC778, offset: 0x4B889, size: 0x8, addend: 0x0, symName: __ZNKSt3__122__compressed_pair_elemINS_9allocatorIcEELi1ELb1EE5__getB8ue170006Ev, symObjAddr: 0x7864, symBinAddr: 0x100010E48, symSize: 0x14 }
  - { offsetInCU: 0xC79D, offset: 0x4B8AE, size: 0x8, addend: 0x0, symName: __ZNSt3__123__libcpp_numeric_limitsImLb1EE3maxB8ue170006Ev, symObjAddr: 0x7878, symBinAddr: 0x100010E5C, symSize: 0x8 }
  - { offsetInCU: 0xC7B1, offset: 0x4B8C2, size: 0x8, addend: 0x0, symName: __ZNSt3__111char_traitsIcE11to_int_typeB8ue170006Ec, symObjAddr: 0x7880, symBinAddr: 0x100010E64, symSize: 0x14 }
  - { offsetInCU: 0xC7D4, offset: 0x4B8E5, size: 0x8, addend: 0x0, symName: __Z7isasciii, symObjAddr: 0x7894, symBinAddr: 0x100010E78, symSize: 0x24 }
  - { offsetInCU: 0xC801, offset: 0x4B912, size: 0x8, addend: 0x0, symName: __ZNKSt3__18ios_base10exceptionsB8ue170006Ev, symObjAddr: 0x78B8, symBinAddr: 0x100010E9C, symSize: 0x18 }
  - { offsetInCU: 0x3EE7, offset: 0x4F8C9, size: 0x8, addend: 0x0, symName: __ZNSt3__13maxB8ue170006IfEERKT_S3_S3_, symObjAddr: 0x11C, symBinAddr: 0x100010FD0, symSize: 0x2C }
  - { offsetInCU: 0x3F2A, offset: 0x4F90C, size: 0x8, addend: 0x0, symName: __ZNSt3__13minB8ue170006IfEERKT_S3_S3_, symObjAddr: 0x148, symBinAddr: 0x100010FFC, symSize: 0x2C }
  - { offsetInCU: 0x3F6D, offset: 0x4F94F, size: 0x8, addend: 0x0, symName: __ZNSt3__13minB8ue170006IfNS_6__lessIvvEEEERKT_S5_S5_T0_, symObjAddr: 0xA18, symBinAddr: 0x1000117A8, symSize: 0x54 }
  - { offsetInCU: 0x403D, offset: 0x4FA1F, size: 0x8, addend: 0x0, symName: __ZNSt3__13maxB8ue170006IfNS_6__lessIvvEEEERKT_S5_S5_T0_, symObjAddr: 0xAA0, symBinAddr: 0x100011830, symSize: 0x54 }
  - { offsetInCU: 0x4097, offset: 0x4FA79, size: 0x8, addend: 0x0, symName: __ZNSt3__120__throw_out_of_rangeB8ue170006EPKc, symObjAddr: 0x2294, symBinAddr: 0x1000119D8, symSize: 0x64 }
  - { offsetInCU: 0x6283, offset: 0x51C65, size: 0x8, addend: 0x0, symName: __ZN10Efficiency20setCuttingEfficiencyEii, symObjAddr: 0x0, symBinAddr: 0x100010EB4, symSize: 0x104 }
  - { offsetInCU: 0x62E3, offset: 0x51CC5, size: 0x8, addend: 0x0, symName: __Z3absB8ue170006f, symObjAddr: 0x104, symBinAddr: 0x100010FB8, symSize: 0x18 }
  - { offsetInCU: 0x630F, offset: 0x51CF1, size: 0x8, addend: 0x0, symName: __ZN10Efficiency11setExtraTipEv, symObjAddr: 0x174, symBinAddr: 0x100011028, symSize: 0x8C }
  - { offsetInCU: 0x6344, offset: 0x51D26, size: 0x8, addend: 0x0, symName: __ZN10Efficiency20getCuttingEfficiencyEv, symObjAddr: 0x200, symBinAddr: 0x1000110B4, symSize: 0x18 }
  - { offsetInCU: 0x636B, offset: 0x51D4D, size: 0x8, addend: 0x0, symName: __ZN10Efficiency21setToppingsEfficiencyERKNSt3__16vectorIP7ToppingNS0_9allocatorIS3_EEEERKNS1_IiNS4_IiEEEE, symObjAddr: 0x218, symBinAddr: 0x1000110CC, symSize: 0x440 }
  - { offsetInCU: 0x642C, offset: 0x51E0E, size: 0x8, addend: 0x0, symName: __ZNSt3__16vectorIiNS_9allocatorIiEEEC1B8ue170006ESt16initializer_listIiE, symObjAddr: 0x658, symBinAddr: 0x10001150C, symSize: 0x3C }
  - { offsetInCU: 0x6466, offset: 0x51E48, size: 0x8, addend: 0x0, symName: __ZNKSt3__16vectorIP7ToppingNS_9allocatorIS2_EEE2atEm, symObjAddr: 0x768, symBinAddr: 0x100011548, symSize: 0x60 }
  - { offsetInCU: 0x649B, offset: 0x51E7D, size: 0x8, addend: 0x0, symName: __ZNSt3__16vectorIiNS_9allocatorIiEEEixB8ue170006Em, symObjAddr: 0x7C8, symBinAddr: 0x1000115A8, symSize: 0x24 }
  - { offsetInCU: 0x64D1, offset: 0x51EB3, size: 0x8, addend: 0x0, symName: __ZNKSt3__16vectorIiNS_9allocatorIiEEE2atEm, symObjAddr: 0x7EC, symBinAddr: 0x1000115CC, symSize: 0x60 }
  - { offsetInCU: 0x6506, offset: 0x51EE8, size: 0x8, addend: 0x0, symName: __ZN10Efficiency21getToppingsEfficiencyEv, symObjAddr: 0x89C, symBinAddr: 0x10001162C, symSize: 0x18 }
  - { offsetInCU: 0x652D, offset: 0x51F0F, size: 0x8, addend: 0x0, symName: __ZN10Efficiency25setOvenDurationEfficiencyEii, symObjAddr: 0x8B4, symBinAddr: 0x100011644, symSize: 0xD4 }
  - { offsetInCU: 0x658D, offset: 0x51F6F, size: 0x8, addend: 0x0, symName: __ZN10Efficiency25getOvenDurationEfficiencyEv, symObjAddr: 0x988, symBinAddr: 0x100011718, symSize: 0x18 }
  - { offsetInCU: 0x65B4, offset: 0x51F96, size: 0x8, addend: 0x0, symName: __ZN10Efficiency11getExtraTipEv, symObjAddr: 0x9A0, symBinAddr: 0x100011730, symSize: 0x18 }
  - { offsetInCU: 0x65DB, offset: 0x51FBD, size: 0x8, addend: 0x0, symName: __ZN10Efficiency23changeCuttingEfficiencyEf, symObjAddr: 0x9B8, symBinAddr: 0x100011748, symSize: 0x20 }
  - { offsetInCU: 0x6610, offset: 0x51FF2, size: 0x8, addend: 0x0, symName: __ZN10Efficiency24changeToppingsEfficiencyEf, symObjAddr: 0x9D8, symBinAddr: 0x100011768, symSize: 0x20 }
  - { offsetInCU: 0x6645, offset: 0x52027, size: 0x8, addend: 0x0, symName: __ZN10Efficiency28changeOvenDurationEfficiencyEf, symObjAddr: 0x9F8, symBinAddr: 0x100011788, symSize: 0x20 }
  - { offsetInCU: 0x668E, offset: 0x52070, size: 0x8, addend: 0x0, symName: __ZNKSt3__16__lessIvvEclB8ue170006IffEEbRKT_RKT0_, symObjAddr: 0xA6C, symBinAddr: 0x1000117FC, symSize: 0x34 }
  - { offsetInCU: 0x66E1, offset: 0x520C3, size: 0x8, addend: 0x0, symName: __ZNSt3__16vectorIiNS_9allocatorIiEEEC2B8ue170006ESt16initializer_listIiE, symObjAddr: 0xAF4, symBinAddr: 0x100011884, symSize: 0x120 }
  - { offsetInCU: 0x6730, offset: 0x52112, size: 0x8, addend: 0x0, symName: __ZNKSt16initializer_listIiE4sizeB8ue170006Ev, symObjAddr: 0xCC4, symBinAddr: 0x1000119A4, symSize: 0x18 }
  - { offsetInCU: 0x6778, offset: 0x5215A, size: 0x8, addend: 0x0, symName: __ZNKSt3__16vectorIP7ToppingNS_9allocatorIS2_EEE20__throw_out_of_rangeB8ue170006Ev, symObjAddr: 0x2278, symBinAddr: 0x1000119BC, symSize: 0x1C }
  - { offsetInCU: 0x679D, offset: 0x5217F, size: 0x8, addend: 0x0, symName: __ZNSt12out_of_rangeC1B8ue170006EPKc, symObjAddr: 0x22F8, symBinAddr: 0x100011A3C, symSize: 0x34 }
  - { offsetInCU: 0x67D4, offset: 0x521B6, size: 0x8, addend: 0x0, symName: __ZNSt12out_of_rangeC2B8ue170006EPKc, symObjAddr: 0x232C, symBinAddr: 0x100011A70, symSize: 0x4C }
  - { offsetInCU: 0x680B, offset: 0x521ED, size: 0x8, addend: 0x0, symName: __ZNKSt3__16vectorIiNS_9allocatorIiEEE20__throw_out_of_rangeB8ue170006Ev, symObjAddr: 0x24F0, symBinAddr: 0x100011ABC, symSize: 0x1C }
...
