---
triple:          'arm64-apple-darwin'
binary-path:     stateTester
relocations:
  - { offsetInCU: 0x4C00, offset: 0x4C00, size: 0x8, addend: 0x0, symName: __ZNSt3__124__put_character_sequenceB8ue170006IcNS_11char_traitsIcEEEERNS_13basic_ostreamIT_T0_EES7_PKS4_m, symObjAddr: 0x2AB8, symBinAddr: 0x100004364, symSize: 0x1EC }
  - { offsetInCU: 0x6760, offset: 0x6760, size: 0x8, addend: 0x0, symName: __ZNSt3__1lsB8ue170006INS_11char_traitsIcEEEERNS_13basic_ostreamIcT_EES6_PKc, symObjAddr: 0x38C, symBinAddr: 0x100001C38, symSize: 0x48 }
  - { offsetInCU: 0x67A6, offset: 0x67A6, size: 0x8, addend: 0x0, symName: __ZNSt3__14endlB8ue170006IcNS_11char_traitsIcEEEERNS_13basic_ostreamIT_T0_EES7_, symObjAddr: 0x400, symBinAddr: 0x100001CAC, symSize: 0x58 }
  - { offsetInCU: 0x67E6, offset: 0x67E6, size: 0x8, addend: 0x0, symName: __ZNSt3__1eqB8ue170006INS_9allocatorIcEEEEbRKNS_12basic_stringIcNS_11char_traitsIcEET_EES9_, symObjAddr: 0x97C, symBinAddr: 0x100002228, symSize: 0x148 }
  - { offsetInCU: 0x6875, offset: 0x6875, size: 0x8, addend: 0x0, symName: __ZNSt3__1neB8ue170006IPP7ToppingEEbRKNS_11__wrap_iterIT_EES8_, symObjAddr: 0xD24, symBinAddr: 0x1000025D0, symSize: 0x34 }
  - { offsetInCU: 0x68B8, offset: 0x68B8, size: 0x8, addend: 0x0, symName: __ZNSt3__1eqB8ue170006IPP7ToppingEEbRKNS_11__wrap_iterIT_EES8_, symObjAddr: 0xE14, symBinAddr: 0x1000026C0, symSize: 0x48 }
  - { offsetInCU: 0x68FB, offset: 0x68FB, size: 0x8, addend: 0x0, symName: __ZNSt3__112__to_addressB8ue170006IP7ToppingEEPT_S4_, symObjAddr: 0x132C, symBinAddr: 0x100002BD8, symSize: 0x14 }
  - { offsetInCU: 0x6930, offset: 0x6930, size: 0x8, addend: 0x0, symName: __ZNSt3__119__libcpp_deallocateB8ue170006EPvmm, symObjAddr: 0x13DC, symBinAddr: 0x100002C88, symSize: 0x30 }
  - { offsetInCU: 0x6978, offset: 0x6978, size: 0x8, addend: 0x0, symName: __ZNSt3__127__do_deallocate_handle_sizeB8ue170006IJEEEvPvmDpT_, symObjAddr: 0x140C, symBinAddr: 0x100002CB8, symSize: 0x28 }
  - { offsetInCU: 0x69B6, offset: 0x69B6, size: 0x8, addend: 0x0, symName: __ZNSt3__124__libcpp_operator_deleteB8ue170006IJPvEEEvDpT_, symObjAddr: 0x1434, symBinAddr: 0x100002CE0, symSize: 0x24 }
  - { offsetInCU: 0x69EB, offset: 0x69EB, size: 0x8, addend: 0x0, symName: __ZNSt3__13maxB8ue170006ImEERKT_S3_S3_, symObjAddr: 0x1A90, symBinAddr: 0x10000333C, symSize: 0x2C }
  - { offsetInCU: 0x6A2E, offset: 0x6A2E, size: 0x8, addend: 0x0, symName: __ZNSt3__13minB8ue170006ImEERKT_S3_S3_, symObjAddr: 0x1ABC, symBinAddr: 0x100003368, symSize: 0x2C }
  - { offsetInCU: 0x6C72, offset: 0x6C72, size: 0x8, addend: 0x0, symName: __ZNSt3__13minB8ue170006ImNS_6__lessIvvEEEERKT_S5_S5_T0_, symObjAddr: 0x1B48, symBinAddr: 0x1000033F4, symSize: 0x54 }
  - { offsetInCU: 0x6D11, offset: 0x6D11, size: 0x8, addend: 0x0, symName: __ZNSt3__120__throw_length_errorB8ue170006EPKc, symObjAddr: 0x1C24, symBinAddr: 0x1000034D0, symSize: 0x64 }
  - { offsetInCU: 0x6D3B, offset: 0x6D3B, size: 0x8, addend: 0x0, symName: __ZNSt3__13maxB8ue170006ImNS_6__lessIvvEEEERKT_S5_S5_T0_, symObjAddr: 0x1D08, symBinAddr: 0x1000035B4, symSize: 0x54 }
  - { offsetInCU: 0x6D95, offset: 0x6D95, size: 0x8, addend: 0x0, symName: __ZNSt3__119__allocate_at_leastB8ue170006INS_9allocatorIP7ToppingEEEENS_19__allocation_resultINS_16allocator_traitsIT_E7pointerEEERS7_m, symObjAddr: 0x1E6C, symBinAddr: 0x100003718, symSize: 0x40 }
  - { offsetInCU: 0x6DD8, offset: 0x6DD8, size: 0x8, addend: 0x0, symName: __ZNSt3__117__libcpp_allocateB8ue170006Emm, symObjAddr: 0x1FF0, symBinAddr: 0x10000389C, symSize: 0x28 }
  - { offsetInCU: 0x6E15, offset: 0x6E15, size: 0x8, addend: 0x0, symName: __ZNSt3__121__libcpp_operator_newB8ue170006IJmEEEPvDpT_, symObjAddr: 0x2018, symBinAddr: 0x1000038C4, symSize: 0x24 }
  - { offsetInCU: 0x6E4E, offset: 0x6E4E, size: 0x8, addend: 0x0, symName: __ZNSt3__142__uninitialized_allocator_move_if_noexceptB8ue170006INS_9allocatorIP7ToppingEENS_16reverse_iteratorIPS3_EES7_S3_vEET1_RT_T0_SB_S8_, symObjAddr: 0x20A0, symBinAddr: 0x10000394C, symSize: 0x78 }
  - { offsetInCU: 0x6ECB, offset: 0x6ECB, size: 0x8, addend: 0x0, symName: __ZNSt3__14swapB8ue170006IPP7ToppingEENS_9enable_ifIXaasr21is_move_constructibleIT_EE5valuesr18is_move_assignableIS5_EE5valueEvE4typeERS5_S8_, symObjAddr: 0x2164, symBinAddr: 0x100003A10, symSize: 0x3C }
  - { offsetInCU: 0x6F1C, offset: 0x6F1C, size: 0x8, addend: 0x0, symName: __ZNSt3__14moveB8ue170006INS_16reverse_iteratorIPP7ToppingEES5_EET0_T_S7_S6_, symObjAddr: 0x224C, symBinAddr: 0x100003AF8, symSize: 0x78 }
  - { offsetInCU: 0x6F76, offset: 0x6F76, size: 0x8, addend: 0x0, symName: __ZNSt3__16__moveB8ue170006INS_17_ClassicAlgPolicyENS_16reverse_iteratorIPP7ToppingEES6_S6_EENS_4pairIT0_T2_EES8_T1_S9_, symObjAddr: 0x22C4, symBinAddr: 0x100003B70, symSize: 0x64 }
  - { offsetInCU: 0x6FE2, offset: 0x6FE2, size: 0x8, addend: 0x0, symName: __ZNSt3__123__dispatch_copy_or_moveB8ue170006INS_17_ClassicAlgPolicyENS_11__move_loopIS1_EENS_14__move_trivialENS_16reverse_iteratorIPP7ToppingEES9_S9_EENS_4pairIT2_T4_EESB_T3_SC_, symObjAddr: 0x2328, symBinAddr: 0x100003BD4, symSize: 0x64 }
  - { offsetInCU: 0x7060, offset: 0x7060, size: 0x8, addend: 0x0, symName: __ZNSt3__121__unwrap_and_dispatchB8ue170006INS_10__overloadINS_11__move_loopINS_17_ClassicAlgPolicyEEENS_14__move_trivialEEENS_16reverse_iteratorIPP7ToppingEESB_SB_Li0EEENS_4pairIT0_T2_EESD_T1_SE_, symObjAddr: 0x238C, symBinAddr: 0x100003C38, symSize: 0x12C }
  - { offsetInCU: 0x70F0, offset: 0x70F0, size: 0x8, addend: 0x0, symName: __ZNSt3__114__unwrap_rangeB8ue170006INS_16reverse_iteratorIPP7ToppingEES5_EENS_4pairIT0_S7_EET_S9_, symObjAddr: 0x24B8, symBinAddr: 0x100003D64, symSize: 0x84 }
  - { offsetInCU: 0x726B, offset: 0x726B, size: 0x8, addend: 0x0, symName: __ZNSt3__113__unwrap_iterB8ue170006INS_16reverse_iteratorIPP7ToppingEENS_18__unwrap_iter_implIS5_Lb0EEELi0EEEDTclsrT0_8__unwrapclsr3stdE7declvalIT_EEEES9_, symObjAddr: 0x25DC, symBinAddr: 0x100003E88, symSize: 0x44 }
  - { offsetInCU: 0x72AF, offset: 0x72AF, size: 0x8, addend: 0x0, symName: __ZNSt3__19make_pairB8ue170006INS_16reverse_iteratorIPP7ToppingEES5_EENS_4pairINS_18__unwrap_ref_decayIT_E4typeENS7_IT0_E4typeEEEOS8_OSB_, symObjAddr: 0x2620, symBinAddr: 0x100003ECC, symSize: 0x38 }
  - { offsetInCU: 0x72FE, offset: 0x72FE, size: 0x8, addend: 0x0, symName: __ZNSt3__114__rewrap_rangeB8ue170006INS_16reverse_iteratorIPP7ToppingEES5_EET_S6_T0_, symObjAddr: 0x2658, symBinAddr: 0x100003F04, symSize: 0x5C }
  - { offsetInCU: 0x734A, offset: 0x734A, size: 0x8, addend: 0x0, symName: __ZNSt3__113__rewrap_iterB8ue170006INS_16reverse_iteratorIPP7ToppingEES5_NS_18__unwrap_iter_implIS5_Lb0EEEEET_S8_T0_, symObjAddr: 0x26B4, symBinAddr: 0x100003F60, symSize: 0x74 }
  - { offsetInCU: 0x739F, offset: 0x739F, size: 0x8, addend: 0x0, symName: __ZNSt3__1neB8ue170006IPP7ToppingS3_EEbRKNS_16reverse_iteratorIT_EERKNS4_IT0_EE, symObjAddr: 0x2728, symBinAddr: 0x100003FD4, symSize: 0x48 }
  - { offsetInCU: 0x749D, offset: 0x749D, size: 0x8, addend: 0x0, symName: __ZNSt3__116__pad_and_outputB8ue170006IcNS_11char_traitsIcEEEENS_19ostreambuf_iteratorIT_T0_EES6_PKS4_S8_S8_RNS_8ios_baseES4_, symObjAddr: 0x2CF4, symBinAddr: 0x1000045A0, symSize: 0x240 }
  - { offsetInCU: 0x756C, offset: 0x756C, size: 0x8, addend: 0x0, symName: __ZNSt3__112__to_addressB8ue170006IKcEEPT_S3_, symObjAddr: 0x325C, symBinAddr: 0x100004B08, symSize: 0x14 }
  - { offsetInCU: 0x75D4, offset: 0x75D4, size: 0x8, addend: 0x0, symName: __ZNSt3__19use_facetB8ue170006INS_5ctypeIcEEEERKT_RKNS_6localeE, symObjAddr: 0x34DC, symBinAddr: 0x100004D88, symSize: 0x2C }
  - { offsetInCU: 0x7AA1, offset: 0x7AA1, size: 0x8, addend: 0x0, symName: __ZNSt3__118__constexpr_strlenB8ue170006EPKc, symObjAddr: 0x3574, symBinAddr: 0x100004E20, symSize: 0x24 }
  - { offsetInCU: 0x7ACD, offset: 0x7ACD, size: 0x8, addend: 0x0, symName: __ZNSt3__1miB8ue170006IPKP7ToppingS4_EEDTmicldtfp_4baseEcldtfp0_4baseEERKNS_11__wrap_iterIT_EERKNS6_IT0_EE, symObjAddr: 0x3780, symBinAddr: 0x10000502C, symSize: 0x48 }
  - { offsetInCU: 0x7B19, offset: 0x7B19, size: 0x8, addend: 0x0, symName: __ZNSt3__14moveB8ue170006IPP7ToppingS3_EET0_T_S5_S4_, symObjAddr: 0x3840, symBinAddr: 0x1000050EC, symSize: 0x40 }
  - { offsetInCU: 0x7B73, offset: 0x7B73, size: 0x8, addend: 0x0, symName: __ZNSt3__16__moveB8ue170006INS_17_ClassicAlgPolicyEPP7ToppingS4_S4_EENS_4pairIT0_T2_EES6_T1_S7_, symObjAddr: 0x3A00, symBinAddr: 0x1000052AC, symSize: 0x44 }
  - { offsetInCU: 0x7BDF, offset: 0x7BDF, size: 0x8, addend: 0x0, symName: __ZNSt3__123__dispatch_copy_or_moveB8ue170006INS_17_ClassicAlgPolicyENS_11__move_loopIS1_EENS_14__move_trivialEPP7ToppingS7_S7_EENS_4pairIT2_T4_EES9_T3_SA_, symObjAddr: 0x3A44, symBinAddr: 0x1000052F0, symSize: 0x44 }
  - { offsetInCU: 0x7C5D, offset: 0x7C5D, size: 0x8, addend: 0x0, symName: __ZNSt3__121__unwrap_and_dispatchB8ue170006INS_10__overloadINS_11__move_loopINS_17_ClassicAlgPolicyEEENS_14__move_trivialEEEPP7ToppingS9_S9_Li0EEENS_4pairIT0_T2_EESB_T1_SC_, symObjAddr: 0x3A88, symBinAddr: 0x100005334, symSize: 0xB4 }
  - { offsetInCU: 0x7CEB, offset: 0x7CEB, size: 0x8, addend: 0x0, symName: __ZNSt3__114__unwrap_rangeB8ue170006IPP7ToppingS3_EENS_4pairIT0_S5_EET_S7_, symObjAddr: 0x3B3C, symBinAddr: 0x1000053E8, symSize: 0x60 }
  - { offsetInCU: 0x7E80, offset: 0x7E80, size: 0x8, addend: 0x0, symName: __ZNSt3__113__unwrap_iterB8ue170006IPP7ToppingNS_18__unwrap_iter_implIS3_Lb1EEELi0EEEDTclsrT0_8__unwrapclsr3stdE7declvalIT_EEEES7_, symObjAddr: 0x3BE4, symBinAddr: 0x100005490, symSize: 0x24 }
  - { offsetInCU: 0x7EC4, offset: 0x7EC4, size: 0x8, addend: 0x0, symName: __ZNSt3__19make_pairB8ue170006IPP7ToppingS3_EENS_4pairINS_18__unwrap_ref_decayIT_E4typeENS5_IT0_E4typeEEEOS6_OS9_, symObjAddr: 0x3C08, symBinAddr: 0x1000054B4, symSize: 0x38 }
  - { offsetInCU: 0x7F13, offset: 0x7F13, size: 0x8, addend: 0x0, symName: __ZNSt3__114__rewrap_rangeB8ue170006IPP7ToppingS3_EET_S4_T0_, symObjAddr: 0x3C40, symBinAddr: 0x1000054EC, symSize: 0x2C }
  - { offsetInCU: 0x7F5F, offset: 0x7F5F, size: 0x8, addend: 0x0, symName: __ZNSt3__113__rewrap_iterB8ue170006IPP7ToppingS3_NS_18__unwrap_iter_implIS3_Lb1EEEEET_S6_T0_, symObjAddr: 0x3C6C, symBinAddr: 0x100005518, symSize: 0x3C }
  - { offsetInCU: 0x7FB4, offset: 0x7FB4, size: 0x8, addend: 0x0, symName: __ZNSt3__119__copy_trivial_implB8ue170006IP7ToppingS2_EENS_4pairIPT_PT0_EES5_S5_S7_, symObjAddr: 0x3CA8, symBinAddr: 0x100005554, symSize: 0x80 }
  - { offsetInCU: 0x801C, offset: 0x801C, size: 0x8, addend: 0x0, symName: __ZNSt3__119__constexpr_memmoveB8ue170006IP7ToppingS2_Li0EEEPT_S4_PT0_NS_15__element_countE, symObjAddr: 0x3D28, symBinAddr: 0x1000055D4, symSize: 0x64 }
  - { offsetInCU: 0x808A, offset: 0x808A, size: 0x8, addend: 0x0, symName: __ZNSt3__19make_pairB8ue170006IRPP7ToppingS3_EENS_4pairINS_18__unwrap_ref_decayIT_E4typeENS6_IT0_E4typeEEEOS7_OSA_, symObjAddr: 0x3D8C, symBinAddr: 0x100005638, symSize: 0x38 }
  - { offsetInCU: 0x839C, offset: 0x839C, size: 0x8, addend: 0x0, symName: __ZSt28__throw_bad_array_new_lengthB8ue170006v, symObjAddr: 0x1FBC, symBinAddr: 0x100003868, symSize: 0x34 }
  - { offsetInCU: 0x8993, offset: 0x8993, size: 0x8, addend: 0x0, symName: __ZNSt3__16vectorIP7ToppingNS_9allocatorIS2_EEE26__swap_out_circular_bufferERNS_14__split_bufferIS2_RS4_EE, symObjAddr: 0x18D8, symBinAddr: 0x100003184, symSize: 0x110 }
  - { offsetInCU: 0xAEAB, offset: 0xAEAB, size: 0x8, addend: 0x0, symName: __ZN5PizzaC2Ev, symObjAddr: 0x0, symBinAddr: 0x1000018AC, symSize: 0x58 }
  - { offsetInCU: 0xAED6, offset: 0xAED6, size: 0x8, addend: 0x0, symName: __ZNSt3__16vectorIP7ToppingNS_9allocatorIS2_EEEC1B8ue170006Ev, symObjAddr: 0x58, symBinAddr: 0x100001904, symSize: 0x2C }
  - { offsetInCU: 0xAEFF, offset: 0xAEFF, size: 0x8, addend: 0x0, symName: __ZN5Pizza9getRadiusEv, symObjAddr: 0x84, symBinAddr: 0x100001930, symSize: 0x18 }
  - { offsetInCU: 0xAF26, offset: 0xAF26, size: 0x8, addend: 0x0, symName: __ZN5Pizza17getCrustThicknessEv, symObjAddr: 0x9C, symBinAddr: 0x100001948, symSize: 0x18 }
  - { offsetInCU: 0xAF4D, offset: 0xAF4D, size: 0x8, addend: 0x0, symName: __ZN5Pizza11addToppingsEi, symObjAddr: 0xB4, symBinAddr: 0x100001960, symSize: 0x25C }
  - { offsetInCU: 0xAFED, offset: 0xAFED, size: 0x8, addend: 0x0, symName: __ZNSt3__16vectorIP7ToppingNS_9allocatorIS2_EEE9push_backB8ue170006ERKS2_, symObjAddr: 0x320, symBinAddr: 0x100001BCC, symSize: 0x6C }
  - { offsetInCU: 0xB023, offset: 0xB023, size: 0x8, addend: 0x0, symName: __ZNSt3__113basic_ostreamIcNS_11char_traitsIcEEElsB8ue170006EPFRS3_S4_E, symObjAddr: 0x3D4, symBinAddr: 0x100001C80, symSize: 0x2C }
  - { offsetInCU: 0xB056, offset: 0xB056, size: 0x8, addend: 0x0, symName: __ZN5Pizza22removeToppingFromPizzaEi, symObjAddr: 0x458, symBinAddr: 0x100001D04, symSize: 0x468 }
  - { offsetInCU: 0xB0CB, offset: 0xB0CB, size: 0x8, addend: 0x0, symName: __ZNSt3__112basic_stringIcNS_11char_traitsIcEENS_9allocatorIcEEEC1B8ue170006ILi0EEEPKc, symObjAddr: 0x8D0, symBinAddr: 0x10000217C, symSize: 0x34 }
  - { offsetInCU: 0xB109, offset: 0xB109, size: 0x8, addend: 0x0, symName: __ZNSt3__112basic_stringIcNS_11char_traitsIcEENS_9allocatorIcEEEaSB8ue170006EPKc, symObjAddr: 0x904, symBinAddr: 0x1000021B0, symSize: 0x2C }
  - { offsetInCU: 0xB13D, offset: 0xB13D, size: 0x8, addend: 0x0, symName: __ZNKSt3__16vectorIP7ToppingNS_9allocatorIS2_EEE4sizeB8ue170006Ev, symObjAddr: 0x930, symBinAddr: 0x1000021DC, symSize: 0x28 }
  - { offsetInCU: 0xB162, offset: 0xB162, size: 0x8, addend: 0x0, symName: __ZNSt3__16vectorIP7ToppingNS_9allocatorIS2_EEEixB8ue170006Em, symObjAddr: 0x958, symBinAddr: 0x100002204, symSize: 0x24 }
  - { offsetInCU: 0xB197, offset: 0xB197, size: 0x8, addend: 0x0, symName: __ZNSt3__16vectorIP7ToppingNS_9allocatorIS2_EEE5eraseB8ue170006ENS_11__wrap_iterIPKS2_EE, symObjAddr: 0xAC4, symBinAddr: 0x100002370, symSize: 0x94 }
  - { offsetInCU: 0xB1EA, offset: 0xB1EA, size: 0x8, addend: 0x0, symName: __ZNSt3__16vectorIP7ToppingNS_9allocatorIS2_EEE5beginB8ue170006Ev, symObjAddr: 0xB58, symBinAddr: 0x100002404, symSize: 0x30 }
  - { offsetInCU: 0xB211, offset: 0xB211, size: 0x8, addend: 0x0, symName: __ZNKSt3__111__wrap_iterIPP7ToppingEplB8ue170006El, symObjAddr: 0xB88, symBinAddr: 0x100002434, symSize: 0x3C }
  - { offsetInCU: 0xB25C, offset: 0xB25C, size: 0x8, addend: 0x0, symName: __ZNSt3__111__wrap_iterIPKP7ToppingEC1B8ue170006IPS2_EERKNS0_IT_EEPNS_9enable_ifIXsr14is_convertibleIS8_S4_EE5valueEvE4typeE, symObjAddr: 0xBC4, symBinAddr: 0x100002470, symSize: 0x3C }
  - { offsetInCU: 0xB2A7, offset: 0xB2A7, size: 0x8, addend: 0x0, symName: __ZN5Pizza11getToppingsEv, symObjAddr: 0xC00, symBinAddr: 0x1000024AC, symSize: 0x18 }
  - { offsetInCU: 0xB2CE, offset: 0xB2CE, size: 0x8, addend: 0x0, symName: __ZN5PizzaD2Ev, symObjAddr: 0xC18, symBinAddr: 0x1000024C4, symSize: 0xDC }
  - { offsetInCU: 0xB34B, offset: 0xB34B, size: 0x8, addend: 0x0, symName: __ZNSt3__16vectorIP7ToppingNS_9allocatorIS2_EEE3endB8ue170006Ev, symObjAddr: 0xCF4, symBinAddr: 0x1000025A0, symSize: 0x30 }
  - { offsetInCU: 0xB372, offset: 0xB372, size: 0x8, addend: 0x0, symName: __ZNKSt3__111__wrap_iterIPP7ToppingEdeB8ue170006Ev, symObjAddr: 0xD58, symBinAddr: 0x100002604, symSize: 0x18 }
  - { offsetInCU: 0xB397, offset: 0xB397, size: 0x8, addend: 0x0, symName: __ZNSt3__111__wrap_iterIPP7ToppingEppB8ue170006Ev, symObjAddr: 0xD70, symBinAddr: 0x10000261C, symSize: 0x20 }
  - { offsetInCU: 0xB3BC, offset: 0xB3BC, size: 0x8, addend: 0x0, symName: __ZNSt3__16vectorIP7ToppingNS_9allocatorIS2_EEE5clearB8ue170006Ev, symObjAddr: 0xD90, symBinAddr: 0x10000263C, symSize: 0x44 }
  - { offsetInCU: 0xB3F0, offset: 0xB3F0, size: 0x8, addend: 0x0, symName: __ZNSt3__16vectorIP7ToppingNS_9allocatorIS2_EEED1B8ue170006Ev, symObjAddr: 0xDD4, symBinAddr: 0x100002680, symSize: 0x2C }
  - { offsetInCU: 0xB419, offset: 0xB419, size: 0x8, addend: 0x0, symName: __ZN5PizzaD1Ev, symObjAddr: 0xE00, symBinAddr: 0x1000026AC, symSize: 0x14 }
  - { offsetInCU: 0xB444, offset: 0xB444, size: 0x8, addend: 0x0, symName: __ZNKSt3__111__wrap_iterIPP7ToppingE4baseB8ue170006Ev, symObjAddr: 0xE5C, symBinAddr: 0x100002708, symSize: 0x18 }
  - { offsetInCU: 0xB469, offset: 0xB469, size: 0x8, addend: 0x0, symName: __ZNSt3__16vectorIP7ToppingNS_9allocatorIS2_EEEC2B8ue170006Ev, symObjAddr: 0xE74, symBinAddr: 0x100002720, symSize: 0x4C }
  - { offsetInCU: 0xB49C, offset: 0xB49C, size: 0x8, addend: 0x0, symName: __ZNSt3__117__compressed_pairIPP7ToppingNS_9allocatorIS2_EEEC1B8ue170006IDnNS_18__default_init_tagEEEOT_OT0_, symObjAddr: 0xEC0, symBinAddr: 0x10000276C, symSize: 0x3C }
  - { offsetInCU: 0xB4F3, offset: 0xB4F3, size: 0x8, addend: 0x0, symName: __ZNSt3__117__compressed_pairIPP7ToppingNS_9allocatorIS2_EEEC2B8ue170006IDnNS_18__default_init_tagEEEOT_OT0_, symObjAddr: 0xF08, symBinAddr: 0x1000027B4, symSize: 0x40 }
  - { offsetInCU: 0xB54A, offset: 0xB54A, size: 0x8, addend: 0x0, symName: __ZNSt3__122__compressed_pair_elemIPP7ToppingLi0ELb0EEC2B8ue170006IDnvEEOT_, symObjAddr: 0xF48, symBinAddr: 0x1000027F4, symSize: 0x1C }
  - { offsetInCU: 0xB58B, offset: 0xB58B, size: 0x8, addend: 0x0, symName: __ZNSt3__122__compressed_pair_elemINS_9allocatorIP7ToppingEELi1ELb1EEC2B8ue170006ENS_18__default_init_tagE, symObjAddr: 0xF64, symBinAddr: 0x100002810, symSize: 0x2C }
  - { offsetInCU: 0xB5BF, offset: 0xB5BF, size: 0x8, addend: 0x0, symName: __ZNSt3__19allocatorIP7ToppingEC2B8ue170006Ev, symObjAddr: 0xF90, symBinAddr: 0x10000283C, symSize: 0x2C }
  - { offsetInCU: 0xB5E8, offset: 0xB5E8, size: 0x8, addend: 0x0, symName: __ZNSt3__116__non_trivial_ifILb1ENS_9allocatorIP7ToppingEEEC2B8ue170006Ev, symObjAddr: 0xFBC, symBinAddr: 0x100002868, symSize: 0x14 }
  - { offsetInCU: 0xB611, offset: 0xB611, size: 0x8, addend: 0x0, symName: __ZNSt3__16vectorIP7ToppingNS_9allocatorIS2_EEED2B8ue170006Ev, symObjAddr: 0xFD0, symBinAddr: 0x10000287C, symSize: 0x44 }
  - { offsetInCU: 0xB63A, offset: 0xB63A, size: 0x8, addend: 0x0, symName: __ZNSt3__16vectorIP7ToppingNS_9allocatorIS2_EEE16__destroy_vectorC1B8ue170006ERS5_, symObjAddr: 0x1014, symBinAddr: 0x1000028C0, symSize: 0x34 }
  - { offsetInCU: 0xB672, offset: 0xB672, size: 0x8, addend: 0x0, symName: __ZNSt3__16vectorIP7ToppingNS_9allocatorIS2_EEE16__destroy_vectorclB8ue170006Ev, symObjAddr: 0x1048, symBinAddr: 0x1000028F4, symSize: 0x90 }
  - { offsetInCU: 0xB697, offset: 0xB697, size: 0x8, addend: 0x0, symName: __ZNSt3__16vectorIP7ToppingNS_9allocatorIS2_EEE16__destroy_vectorC2B8ue170006ERS5_, symObjAddr: 0x10D8, symBinAddr: 0x100002984, symSize: 0x20 }
  - { offsetInCU: 0xB6CF, offset: 0xB6CF, size: 0x8, addend: 0x0, symName: __ZNSt3__16vectorIP7ToppingNS_9allocatorIS2_EEE7__clearB8ue170006Ev, symObjAddr: 0x10F8, symBinAddr: 0x1000029A4, symSize: 0x28 }
  - { offsetInCU: 0xB6F4, offset: 0xB6F4, size: 0x8, addend: 0x0, symName: __ZNKSt3__16vectorIP7ToppingNS_9allocatorIS2_EEE17__annotate_deleteB8ue170006Ev, symObjAddr: 0x1120, symBinAddr: 0x1000029CC, symSize: 0xB8 }
  - { offsetInCU: 0xB719, offset: 0xB719, size: 0x8, addend: 0x0, symName: __ZNSt3__116allocator_traitsINS_9allocatorIP7ToppingEEE10deallocateB8ue170006ERS4_PS3_m, symObjAddr: 0x11D8, symBinAddr: 0x100002A84, symSize: 0x34 }
  - { offsetInCU: 0xB75B, offset: 0xB75B, size: 0x8, addend: 0x0, symName: __ZNSt3__16vectorIP7ToppingNS_9allocatorIS2_EEE7__allocB8ue170006Ev, symObjAddr: 0x120C, symBinAddr: 0x100002AB8, symSize: 0x28 }
  - { offsetInCU: 0xB780, offset: 0xB780, size: 0x8, addend: 0x0, symName: __ZNKSt3__16vectorIP7ToppingNS_9allocatorIS2_EEE8capacityB8ue170006Ev, symObjAddr: 0x1234, symBinAddr: 0x100002AE0, symSize: 0x40 }
  - { offsetInCU: 0xB7A5, offset: 0xB7A5, size: 0x8, addend: 0x0, symName: __ZNSt3__16vectorIP7ToppingNS_9allocatorIS2_EEE22__base_destruct_at_endB8ue170006EPS2_, symObjAddr: 0x1274, symBinAddr: 0x100002B20, symSize: 0x8C }
  - { offsetInCU: 0xB7E8, offset: 0xB7E8, size: 0x8, addend: 0x0, symName: __ZNSt3__116allocator_traitsINS_9allocatorIP7ToppingEEE7destroyB8ue170006IS3_vEEvRS4_PT_, symObjAddr: 0x1300, symBinAddr: 0x100002BAC, symSize: 0x2C }
  - { offsetInCU: 0xB825, offset: 0xB825, size: 0x8, addend: 0x0, symName: __ZNSt3__19allocatorIP7ToppingE7destroyB8ue170006EPS2_, symObjAddr: 0x1340, symBinAddr: 0x100002BEC, symSize: 0x14 }
  - { offsetInCU: 0xB858, offset: 0xB858, size: 0x8, addend: 0x0, symName: __ZNKSt3__16vectorIP7ToppingNS_9allocatorIS2_EEE31__annotate_contiguous_containerB8ue170006EPKvS7_S7_S7_, symObjAddr: 0x1354, symBinAddr: 0x100002C00, symSize: 0x20 }
  - { offsetInCU: 0xB8A9, offset: 0xB8A9, size: 0x8, addend: 0x0, symName: __ZNKSt3__16vectorIP7ToppingNS_9allocatorIS2_EEE4dataB8ue170006Ev, symObjAddr: 0x1374, symBinAddr: 0x100002C20, symSize: 0x28 }
  - { offsetInCU: 0xB8CE, offset: 0xB8CE, size: 0x8, addend: 0x0, symName: __ZNSt3__19allocatorIP7ToppingE10deallocateB8ue170006EPS2_m, symObjAddr: 0x139C, symBinAddr: 0x100002C48, symSize: 0x40 }
  - { offsetInCU: 0xB90F, offset: 0xB90F, size: 0x8, addend: 0x0, symName: __ZNSt3__117__compressed_pairIPP7ToppingNS_9allocatorIS2_EEE6secondB8ue170006Ev, symObjAddr: 0x1458, symBinAddr: 0x100002D04, symSize: 0x24 }
  - { offsetInCU: 0xB934, offset: 0xB934, size: 0x8, addend: 0x0, symName: __ZNSt3__122__compressed_pair_elemINS_9allocatorIP7ToppingEELi1ELb1EE5__getB8ue170006Ev, symObjAddr: 0x147C, symBinAddr: 0x100002D28, symSize: 0x14 }
  - { offsetInCU: 0xB959, offset: 0xB959, size: 0x8, addend: 0x0, symName: __ZNKSt3__16vectorIP7ToppingNS_9allocatorIS2_EEE9__end_capB8ue170006Ev, symObjAddr: 0x1490, symBinAddr: 0x100002D3C, symSize: 0x28 }
  - { offsetInCU: 0xB97E, offset: 0xB97E, size: 0x8, addend: 0x0, symName: __ZNKSt3__117__compressed_pairIPP7ToppingNS_9allocatorIS2_EEE5firstB8ue170006Ev, symObjAddr: 0x14B8, symBinAddr: 0x100002D64, symSize: 0x24 }
  - { offsetInCU: 0xB9A3, offset: 0xB9A3, size: 0x8, addend: 0x0, symName: __ZNKSt3__122__compressed_pair_elemIPP7ToppingLi0ELb0EE5__getB8ue170006Ev, symObjAddr: 0x14DC, symBinAddr: 0x100002D88, symSize: 0x14 }
  - { offsetInCU: 0xB9C8, offset: 0xB9C8, size: 0x8, addend: 0x0, symName: __ZNSt3__16vectorIP7ToppingNS_9allocatorIS2_EEE9__end_capB8ue170006Ev, symObjAddr: 0x14F0, symBinAddr: 0x100002D9C, symSize: 0x28 }
  - { offsetInCU: 0xB9ED, offset: 0xB9ED, size: 0x8, addend: 0x0, symName: __ZNSt3__16vectorIP7ToppingNS_9allocatorIS2_EEE22__construct_one_at_endB8ue170006IJRKS2_EEEvDpOT_, symObjAddr: 0x1518, symBinAddr: 0x100002DC4, symSize: 0x90 }
  - { offsetInCU: 0xBA3A, offset: 0xBA3A, size: 0x8, addend: 0x0, symName: __ZNSt3__16vectorIP7ToppingNS_9allocatorIS2_EEE21__push_back_slow_pathIRKS2_EEvOT_, symObjAddr: 0x15A8, symBinAddr: 0x100002E54, symSize: 0xD8 }
  - { offsetInCU: 0xBA97, offset: 0xBA97, size: 0x8, addend: 0x0, symName: __ZNSt3__117__compressed_pairIPP7ToppingNS_9allocatorIS2_EEE5firstB8ue170006Ev, symObjAddr: 0x1680, symBinAddr: 0x100002F2C, symSize: 0x24 }
  - { offsetInCU: 0xBABC, offset: 0xBABC, size: 0x8, addend: 0x0, symName: __ZNSt3__122__compressed_pair_elemIPP7ToppingLi0ELb0EE5__getB8ue170006Ev, symObjAddr: 0x16A4, symBinAddr: 0x100002F50, symSize: 0x14 }
  - { offsetInCU: 0xBAFA, offset: 0xBAFA, size: 0x8, addend: 0x0, symName: __ZNSt3__16vectorIP7ToppingNS_9allocatorIS2_EEE21_ConstructTransactionC1B8ue170006ERS5_m, symObjAddr: 0x16B8, symBinAddr: 0x100002F64, symSize: 0x3C }
  - { offsetInCU: 0xBB41, offset: 0xBB41, size: 0x8, addend: 0x0, symName: __ZNSt3__116allocator_traitsINS_9allocatorIP7ToppingEEE9constructB8ue170006IS3_JRKS3_EvEEvRS4_PT_DpOT0_, symObjAddr: 0x16F4, symBinAddr: 0x100002FA0, symSize: 0x34 }
  - { offsetInCU: 0xBB98, offset: 0xBB98, size: 0x8, addend: 0x0, symName: __ZNSt3__16vectorIP7ToppingNS_9allocatorIS2_EEE21_ConstructTransactionD1B8ue170006Ev, symObjAddr: 0x1728, symBinAddr: 0x100002FD4, symSize: 0x2C }
  - { offsetInCU: 0xBBC1, offset: 0xBBC1, size: 0x8, addend: 0x0, symName: __ZNSt3__16vectorIP7ToppingNS_9allocatorIS2_EEE21_ConstructTransactionC2B8ue170006ERS5_m, symObjAddr: 0x1754, symBinAddr: 0x100003000, symSize: 0x44 }
  - { offsetInCU: 0xBC08, offset: 0xBC08, size: 0x8, addend: 0x0, symName: __ZNSt3__19allocatorIP7ToppingE9constructB8ue170006IS2_JRKS2_EEEvPT_DpOT0_, symObjAddr: 0x1798, symBinAddr: 0x100003044, symSize: 0x28 }
  - { offsetInCU: 0xBC5D, offset: 0xBC5D, size: 0x8, addend: 0x0, symName: __ZNSt3__16vectorIP7ToppingNS_9allocatorIS2_EEE21_ConstructTransactionD2B8ue170006Ev, symObjAddr: 0x17C0, symBinAddr: 0x10000306C, symSize: 0x20 }
  - { offsetInCU: 0xBC85, offset: 0xBC85, size: 0x8, addend: 0x0, symName: __ZNKSt3__16vectorIP7ToppingNS_9allocatorIS2_EEE11__recommendB8ue170006Em, symObjAddr: 0x17E0, symBinAddr: 0x10000308C, symSize: 0xB4 }
  - { offsetInCU: 0xBCD9, offset: 0xBCD9, size: 0x8, addend: 0x0, symName: __ZNSt3__114__split_bufferIP7ToppingRNS_9allocatorIS2_EEEC1EmmS5_, symObjAddr: 0x1894, symBinAddr: 0x100003140, symSize: 0x44 }
  - { offsetInCU: 0xBD2E, offset: 0xBD2E, size: 0x8, addend: 0x0, symName: __ZNSt3__114__split_bufferIP7ToppingRNS_9allocatorIS2_EEED1Ev, symObjAddr: 0x19E8, symBinAddr: 0x100003294, symSize: 0x2C }
  - { offsetInCU: 0xBD58, offset: 0xBD58, size: 0x8, addend: 0x0, symName: __ZNKSt3__16vectorIP7ToppingNS_9allocatorIS2_EEE8max_sizeEv, symObjAddr: 0x1A14, symBinAddr: 0x1000032C0, symSize: 0x60 }
  - { offsetInCU: 0xBD7F, offset: 0xBD7F, size: 0x8, addend: 0x0, symName: __ZNKSt3__16vectorIP7ToppingNS_9allocatorIS2_EEE20__throw_length_errorB8ue170006Ev, symObjAddr: 0x1A74, symBinAddr: 0x100003320, symSize: 0x1C }
  - { offsetInCU: 0xBDAE, offset: 0xBDAE, size: 0x8, addend: 0x0, symName: __ZNSt3__116allocator_traitsINS_9allocatorIP7ToppingEEE8max_sizeB8ue170006IS4_vEEmRKS4_, symObjAddr: 0x1AE8, symBinAddr: 0x100003394, symSize: 0x24 }
  - { offsetInCU: 0xBDDC, offset: 0xBDDC, size: 0x8, addend: 0x0, symName: __ZNKSt3__16vectorIP7ToppingNS_9allocatorIS2_EEE7__allocB8ue170006Ev, symObjAddr: 0x1B0C, symBinAddr: 0x1000033B8, symSize: 0x28 }
  - { offsetInCU: 0xBE01, offset: 0xBE01, size: 0x8, addend: 0x0, symName: __ZNSt3__114numeric_limitsIlE3maxB8ue170006Ev, symObjAddr: 0x1B34, symBinAddr: 0x1000033E0, symSize: 0x14 }
  - { offsetInCU: 0xBE29, offset: 0xBE29, size: 0x8, addend: 0x0, symName: __ZNKSt3__16__lessIvvEclB8ue170006ImmEEbRKT_RKT0_, symObjAddr: 0x1B9C, symBinAddr: 0x100003448, symSize: 0x34 }
  - { offsetInCU: 0xBE7C, offset: 0xBE7C, size: 0x8, addend: 0x0, symName: __ZNKSt3__19allocatorIP7ToppingE8max_sizeB8ue170006Ev, symObjAddr: 0x1BD0, symBinAddr: 0x10000347C, symSize: 0x14 }
  - { offsetInCU: 0xBEA1, offset: 0xBEA1, size: 0x8, addend: 0x0, symName: __ZNKSt3__117__compressed_pairIPP7ToppingNS_9allocatorIS2_EEE6secondB8ue170006Ev, symObjAddr: 0x1BE4, symBinAddr: 0x100003490, symSize: 0x24 }
  - { offsetInCU: 0xBEC6, offset: 0xBEC6, size: 0x8, addend: 0x0, symName: __ZNKSt3__122__compressed_pair_elemINS_9allocatorIP7ToppingEELi1ELb1EE5__getB8ue170006Ev, symObjAddr: 0x1C08, symBinAddr: 0x1000034B4, symSize: 0x14 }
  - { offsetInCU: 0xBEEB, offset: 0xBEEB, size: 0x8, addend: 0x0, symName: __ZNSt3__123__libcpp_numeric_limitsIlLb1EE3maxB8ue170006Ev, symObjAddr: 0x1C1C, symBinAddr: 0x1000034C8, symSize: 0x8 }
  - { offsetInCU: 0xBEFF, offset: 0xBEFF, size: 0x8, addend: 0x0, symName: __ZNSt12length_errorC1B8ue170006EPKc, symObjAddr: 0x1C88, symBinAddr: 0x100003534, symSize: 0x34 }
  - { offsetInCU: 0xBF36, offset: 0xBF36, size: 0x8, addend: 0x0, symName: __ZNSt12length_errorC2B8ue170006EPKc, symObjAddr: 0x1CBC, symBinAddr: 0x100003568, symSize: 0x4C }
  - { offsetInCU: 0xBF6D, offset: 0xBF6D, size: 0x8, addend: 0x0, symName: __ZNSt3__114__split_bufferIP7ToppingRNS_9allocatorIS2_EEEC2EmmS5_, symObjAddr: 0x1D5C, symBinAddr: 0x100003608, symSize: 0xD4 }
  - { offsetInCU: 0xBFE0, offset: 0xBFE0, size: 0x8, addend: 0x0, symName: __ZNSt3__117__compressed_pairIPP7ToppingRNS_9allocatorIS2_EEEC1B8ue170006IDnS6_EEOT_OT0_, symObjAddr: 0x1E30, symBinAddr: 0x1000036DC, symSize: 0x3C }
  - { offsetInCU: 0xC037, offset: 0xC037, size: 0x8, addend: 0x0, symName: __ZNSt3__114__split_bufferIP7ToppingRNS_9allocatorIS2_EEE7__allocB8ue170006Ev, symObjAddr: 0x1EAC, symBinAddr: 0x100003758, symSize: 0x28 }
  - { offsetInCU: 0xC05C, offset: 0xC05C, size: 0x8, addend: 0x0, symName: __ZNSt3__114__split_bufferIP7ToppingRNS_9allocatorIS2_EEE9__end_capB8ue170006Ev, symObjAddr: 0x1ED4, symBinAddr: 0x100003780, symSize: 0x28 }
  - { offsetInCU: 0xC081, offset: 0xC081, size: 0x8, addend: 0x0, symName: __ZNSt3__117__compressed_pairIPP7ToppingRNS_9allocatorIS2_EEEC2B8ue170006IDnS6_EEOT_OT0_, symObjAddr: 0x1EFC, symBinAddr: 0x1000037A8, symSize: 0x48 }
  - { offsetInCU: 0xC0D8, offset: 0xC0D8, size: 0x8, addend: 0x0, symName: __ZNSt3__122__compressed_pair_elemIRNS_9allocatorIP7ToppingEELi1ELb0EEC2B8ue170006IS5_vEEOT_, symObjAddr: 0x1F44, symBinAddr: 0x1000037F0, symSize: 0x20 }
  - { offsetInCU: 0xC119, offset: 0xC119, size: 0x8, addend: 0x0, symName: __ZNSt3__19allocatorIP7ToppingE8allocateB8ue170006Em, symObjAddr: 0x1F64, symBinAddr: 0x100003810, symSize: 0x58 }
  - { offsetInCU: 0xC14C, offset: 0xC14C, size: 0x8, addend: 0x0, symName: __ZNSt3__117__compressed_pairIPP7ToppingRNS_9allocatorIS2_EEE6secondB8ue170006Ev, symObjAddr: 0x203C, symBinAddr: 0x1000038E8, symSize: 0x28 }
  - { offsetInCU: 0xC171, offset: 0xC171, size: 0x8, addend: 0x0, symName: __ZNSt3__122__compressed_pair_elemIRNS_9allocatorIP7ToppingEELi1ELb0EE5__getB8ue170006Ev, symObjAddr: 0x2064, symBinAddr: 0x100003910, symSize: 0x18 }
  - { offsetInCU: 0xC196, offset: 0xC196, size: 0x8, addend: 0x0, symName: __ZNSt3__117__compressed_pairIPP7ToppingRNS_9allocatorIS2_EEE5firstB8ue170006Ev, symObjAddr: 0x207C, symBinAddr: 0x100003928, symSize: 0x24 }
  - { offsetInCU: 0xC1BB, offset: 0xC1BB, size: 0x8, addend: 0x0, symName: __ZNSt3__116reverse_iteratorIPP7ToppingEC1B8ue170006ES3_, symObjAddr: 0x2118, symBinAddr: 0x1000039C4, symSize: 0x34 }
  - { offsetInCU: 0xC1F2, offset: 0xC1F2, size: 0x8, addend: 0x0, symName: __ZNKSt3__116reverse_iteratorIPP7ToppingE4baseB8ue170006Ev, symObjAddr: 0x214C, symBinAddr: 0x1000039F8, symSize: 0x18 }
  - { offsetInCU: 0xC217, offset: 0xC217, size: 0x8, addend: 0x0, symName: __ZNKSt3__16vectorIP7ToppingNS_9allocatorIS2_EEE14__annotate_newB8ue170006Em, symObjAddr: 0x21A0, symBinAddr: 0x100003A4C, symSize: 0xAC }
  - { offsetInCU: 0xC26E, offset: 0xC26E, size: 0x8, addend: 0x0, symName: __ZNKSt3__111__move_loopINS_17_ClassicAlgPolicyEEclB8ue170006INS_16reverse_iteratorIPP7ToppingEES8_S8_EENS_4pairIT_T1_EESA_T0_SB_, symObjAddr: 0x253C, symBinAddr: 0x100003DE8, symSize: 0xA0 }
  - { offsetInCU: 0xC2DD, offset: 0xC2DD, size: 0x8, addend: 0x0, symName: __ZNSt3__18_IterOpsINS_17_ClassicAlgPolicyEE11__iter_moveB8ue170006IRNS_16reverse_iteratorIPP7ToppingEEEENS_9enable_ifIXsr12is_referenceIDTdeclsr3stdE7declvalIRT_EEEEE5valueEDTclsr3stdE4movedeclsr3stdE7declvalISC_EEEEE4typeEOSB_, symObjAddr: 0x2770, symBinAddr: 0x10000401C, symSize: 0x28 }
  - { offsetInCU: 0xC309, offset: 0xC309, size: 0x8, addend: 0x0, symName: __ZNKSt3__116reverse_iteratorIPP7ToppingEdeB8ue170006Ev, symObjAddr: 0x2798, symBinAddr: 0x100004044, symSize: 0x28 }
  - { offsetInCU: 0xC33C, offset: 0xC33C, size: 0x8, addend: 0x0, symName: __ZNSt3__116reverse_iteratorIPP7ToppingEppB8ue170006Ev, symObjAddr: 0x27C0, symBinAddr: 0x10000406C, symSize: 0x20 }
  - { offsetInCU: 0xC361, offset: 0xC361, size: 0x8, addend: 0x0, symName: __ZNSt3__18_IterOpsINS_17_ClassicAlgPolicyEE25__validate_iter_referenceB8ue170006IRNS_16reverse_iteratorIPP7ToppingEEEEvv, symObjAddr: 0x27E0, symBinAddr: 0x10000408C, symSize: 0x4 }
  - { offsetInCU: 0xC37F, offset: 0xC37F, size: 0x8, addend: 0x0, symName: __ZNSt3__118__unwrap_iter_implINS_16reverse_iteratorIPP7ToppingEELb0EE8__unwrapB8ue170006ES5_, symObjAddr: 0x27E4, symBinAddr: 0x100004090, symSize: 0x24 }
  - { offsetInCU: 0xC3A7, offset: 0xC3A7, size: 0x8, addend: 0x0, symName: __ZNSt3__14pairINS_16reverse_iteratorIPP7ToppingEES5_EC1B8ue170006IS5_S5_LPv0EEEOT_OT0_, symObjAddr: 0x2808, symBinAddr: 0x1000040B4, symSize: 0x3C }
  - { offsetInCU: 0xC404, offset: 0xC404, size: 0x8, addend: 0x0, symName: __ZNSt3__14pairINS_16reverse_iteratorIPP7ToppingEES5_EC2B8ue170006IS5_S5_LPv0EEEOT_OT0_, symObjAddr: 0x2844, symBinAddr: 0x1000040F0, symSize: 0x34 }
  - { offsetInCU: 0xC461, offset: 0xC461, size: 0x8, addend: 0x0, symName: __ZNSt3__118__unwrap_iter_implINS_16reverse_iteratorIPP7ToppingEELb0EE8__rewrapB8ue170006ES5_S5_, symObjAddr: 0x2878, symBinAddr: 0x100004124, symSize: 0x2C }
  - { offsetInCU: 0xC48F, offset: 0xC48F, size: 0x8, addend: 0x0, symName: __ZNSt3__116reverse_iteratorIPP7ToppingEC2B8ue170006ES3_, symObjAddr: 0x28A4, symBinAddr: 0x100004150, symSize: 0x28 }
  - { offsetInCU: 0xC4C6, offset: 0xC4C6, size: 0x8, addend: 0x0, symName: __ZNSt3__114__split_bufferIP7ToppingRNS_9allocatorIS2_EEED2Ev, symObjAddr: 0x28CC, symBinAddr: 0x100004178, symSize: 0x8C }
  - { offsetInCU: 0xC4F1, offset: 0xC4F1, size: 0x8, addend: 0x0, symName: __ZNSt3__114__split_bufferIP7ToppingRNS_9allocatorIS2_EEE5clearB8ue170006Ev, symObjAddr: 0x2958, symBinAddr: 0x100004204, symSize: 0x28 }
  - { offsetInCU: 0xC516, offset: 0xC516, size: 0x8, addend: 0x0, symName: __ZNKSt3__114__split_bufferIP7ToppingRNS_9allocatorIS2_EEE8capacityB8ue170006Ev, symObjAddr: 0x2980, symBinAddr: 0x10000422C, symSize: 0x40 }
  - { offsetInCU: 0xC53B, offset: 0xC53B, size: 0x8, addend: 0x0, symName: __ZNSt3__114__split_bufferIP7ToppingRNS_9allocatorIS2_EEE17__destruct_at_endB8ue170006EPS2_, symObjAddr: 0x29C0, symBinAddr: 0x10000426C, symSize: 0x2C }
  - { offsetInCU: 0xC56D, offset: 0xC56D, size: 0x8, addend: 0x0, symName: __ZNSt3__114__split_bufferIP7ToppingRNS_9allocatorIS2_EEE17__destruct_at_endB8ue170006EPS2_NS_17integral_constantIbLb0EEE, symObjAddr: 0x29EC, symBinAddr: 0x100004298, symSize: 0x80 }
  - { offsetInCU: 0xC5AD, offset: 0xC5AD, size: 0x8, addend: 0x0, symName: __ZNKSt3__114__split_bufferIP7ToppingRNS_9allocatorIS2_EEE9__end_capB8ue170006Ev, symObjAddr: 0x2A6C, symBinAddr: 0x100004318, symSize: 0x28 }
  - { offsetInCU: 0xC5D2, offset: 0xC5D2, size: 0x8, addend: 0x0, symName: __ZNKSt3__117__compressed_pairIPP7ToppingRNS_9allocatorIS2_EEE5firstB8ue170006Ev, symObjAddr: 0x2A94, symBinAddr: 0x100004340, symSize: 0x24 }
  - { offsetInCU: 0xC5F7, offset: 0xC5F7, size: 0x8, addend: 0x0, symName: __ZNSt3__111char_traitsIcE6lengthB8ue170006EPKc, symObjAddr: 0x2CA4, symBinAddr: 0x100004550, symSize: 0x34 }
  - { offsetInCU: 0xC638, offset: 0xC638, size: 0x8, addend: 0x0, symName: __ZNKSt3__113basic_ostreamIcNS_11char_traitsIcEEE6sentrycvbB8ue170006Ev, symObjAddr: 0x2CD8, symBinAddr: 0x100004584, symSize: 0x1C }
  - { offsetInCU: 0xC65D, offset: 0xC65D, size: 0x8, addend: 0x0, symName: __ZNSt3__119ostreambuf_iteratorIcNS_11char_traitsIcEEEC1B8ue170006ERNS_13basic_ostreamIcS2_EE, symObjAddr: 0x2F34, symBinAddr: 0x1000047E0, symSize: 0x34 }
  - { offsetInCU: 0xC694, offset: 0xC694, size: 0x8, addend: 0x0, symName: __ZNKSt3__18ios_base5flagsB8ue170006Ev, symObjAddr: 0x2F68, symBinAddr: 0x100004814, symSize: 0x18 }
  - { offsetInCU: 0xC6BA, offset: 0xC6BA, size: 0x8, addend: 0x0, symName: __ZNKSt3__19basic_iosIcNS_11char_traitsIcEEE4fillB8ue170006Ev, symObjAddr: 0x2F80, symBinAddr: 0x10000482C, symSize: 0x64 }
  - { offsetInCU: 0xC6E1, offset: 0xC6E1, size: 0x8, addend: 0x0, symName: __ZNKSt3__119ostreambuf_iteratorIcNS_11char_traitsIcEEE6failedB8ue170006Ev, symObjAddr: 0x2FE4, symBinAddr: 0x100004890, symSize: 0x24 }
  - { offsetInCU: 0xC706, offset: 0xC706, size: 0x8, addend: 0x0, symName: __ZNSt3__19basic_iosIcNS_11char_traitsIcEEE8setstateB8ue170006Ej, symObjAddr: 0x3008, symBinAddr: 0x1000048B4, symSize: 0x2C }
  - { offsetInCU: 0xC73A, offset: 0xC73A, size: 0x8, addend: 0x0, symName: __ZNKSt3__18ios_base5widthB8ue170006Ev, symObjAddr: 0x3034, symBinAddr: 0x1000048E0, symSize: 0x18 }
  - { offsetInCU: 0xC761, offset: 0xC761, size: 0x8, addend: 0x0, symName: __ZNSt3__115basic_streambufIcNS_11char_traitsIcEEE5sputnB8ue170006EPKcl, symObjAddr: 0x304C, symBinAddr: 0x1000048F8, symSize: 0x3C }
  - { offsetInCU: 0xC7A2, offset: 0xC7A2, size: 0x8, addend: 0x0, symName: __ZNSt3__112basic_stringIcNS_11char_traitsIcEENS_9allocatorIcEEEC1B8ue170006Emc, symObjAddr: 0x3088, symBinAddr: 0x100004934, symSize: 0x3C }
  - { offsetInCU: 0xC7E9, offset: 0xC7E9, size: 0x8, addend: 0x0, symName: __ZNKSt3__112basic_stringIcNS_11char_traitsIcEENS_9allocatorIcEEE4dataB8ue170006Ev, symObjAddr: 0x30C4, symBinAddr: 0x100004970, symSize: 0x28 }
  - { offsetInCU: 0xC80E, offset: 0xC80E, size: 0x8, addend: 0x0, symName: __ZNSt3__18ios_base5widthB8ue170006El, symObjAddr: 0x30EC, symBinAddr: 0x100004998, symSize: 0x2C }
  - { offsetInCU: 0xC853, offset: 0xC853, size: 0x8, addend: 0x0, symName: __ZNSt3__112basic_stringIcNS_11char_traitsIcEENS_9allocatorIcEEEC2B8ue170006Emc, symObjAddr: 0x3118, symBinAddr: 0x1000049C4, symSize: 0x4C }
  - { offsetInCU: 0xC89A, offset: 0xC89A, size: 0x8, addend: 0x0, symName: __ZNSt3__117__compressed_pairINS_12basic_stringIcNS_11char_traitsIcEENS_9allocatorIcEEE5__repES5_EC1B8ue170006INS_18__default_init_tagESA_EEOT_OT0_, symObjAddr: 0x3164, symBinAddr: 0x100004A10, symSize: 0x3C }
  - { offsetInCU: 0xC8F1, offset: 0xC8F1, size: 0x8, addend: 0x0, symName: __ZNSt3__117__compressed_pairINS_12basic_stringIcNS_11char_traitsIcEENS_9allocatorIcEEE5__repES5_EC2B8ue170006INS_18__default_init_tagESA_EEOT_OT0_, symObjAddr: 0x31A0, symBinAddr: 0x100004A4C, symSize: 0x3C }
  - { offsetInCU: 0xC948, offset: 0xC948, size: 0x8, addend: 0x0, symName: __ZNSt3__122__compressed_pair_elemINS_12basic_stringIcNS_11char_traitsIcEENS_9allocatorIcEEE5__repELi0ELb0EEC2B8ue170006ENS_18__default_init_tagE, symObjAddr: 0x31DC, symBinAddr: 0x100004A88, symSize: 0x14 }
  - { offsetInCU: 0xC97C, offset: 0xC97C, size: 0x8, addend: 0x0, symName: __ZNSt3__122__compressed_pair_elemINS_9allocatorIcEELi1ELb1EEC2B8ue170006ENS_18__default_init_tagE, symObjAddr: 0x31F0, symBinAddr: 0x100004A9C, symSize: 0x2C }
  - { offsetInCU: 0xC9B0, offset: 0xC9B0, size: 0x8, addend: 0x0, symName: __ZNSt3__19allocatorIcEC2B8ue170006Ev, symObjAddr: 0x321C, symBinAddr: 0x100004AC8, symSize: 0x2C }
  - { offsetInCU: 0xC9D9, offset: 0xC9D9, size: 0x8, addend: 0x0, symName: __ZNSt3__116__non_trivial_ifILb1ENS_9allocatorIcEEEC2B8ue170006Ev, symObjAddr: 0x3248, symBinAddr: 0x100004AF4, symSize: 0x14 }
  - { offsetInCU: 0xCA02, offset: 0xCA02, size: 0x8, addend: 0x0, symName: __ZNKSt3__112basic_stringIcNS_11char_traitsIcEENS_9allocatorIcEEE13__get_pointerB8ue170006Ev, symObjAddr: 0x3270, symBinAddr: 0x100004B1C, symSize: 0x54 }
  - { offsetInCU: 0xCA27, offset: 0xCA27, size: 0x8, addend: 0x0, symName: __ZNKSt3__112basic_stringIcNS_11char_traitsIcEENS_9allocatorIcEEE9__is_longB8ue170006Ev, symObjAddr: 0x32C4, symBinAddr: 0x100004B70, symSize: 0x38 }
  - { offsetInCU: 0xCA4C, offset: 0xCA4C, size: 0x8, addend: 0x0, symName: __ZNKSt3__112basic_stringIcNS_11char_traitsIcEENS_9allocatorIcEEE18__get_long_pointerB8ue170006Ev, symObjAddr: 0x32FC, symBinAddr: 0x100004BA8, symSize: 0x28 }
  - { offsetInCU: 0xCA71, offset: 0xCA71, size: 0x8, addend: 0x0, symName: __ZNKSt3__112basic_stringIcNS_11char_traitsIcEENS_9allocatorIcEEE19__get_short_pointerB8ue170006Ev, symObjAddr: 0x3324, symBinAddr: 0x100004BD0, symSize: 0x28 }
  - { offsetInCU: 0xCA96, offset: 0xCA96, size: 0x8, addend: 0x0, symName: __ZNKSt3__117__compressed_pairINS_12basic_stringIcNS_11char_traitsIcEENS_9allocatorIcEEE5__repES5_E5firstB8ue170006Ev, symObjAddr: 0x334C, symBinAddr: 0x100004BF8, symSize: 0x24 }
  - { offsetInCU: 0xCABB, offset: 0xCABB, size: 0x8, addend: 0x0, symName: __ZNKSt3__122__compressed_pair_elemINS_12basic_stringIcNS_11char_traitsIcEENS_9allocatorIcEEE5__repELi0ELb0EE5__getB8ue170006Ev, symObjAddr: 0x3370, symBinAddr: 0x100004C1C, symSize: 0x14 }
  - { offsetInCU: 0xCAE0, offset: 0xCAE0, size: 0x8, addend: 0x0, symName: __ZNSt3__114pointer_traitsIPKcE10pointer_toB8ue170006ERS1_, symObjAddr: 0x3384, symBinAddr: 0x100004C30, symSize: 0x14 }
  - { offsetInCU: 0xCB03, offset: 0xCB03, size: 0x8, addend: 0x0, symName: __ZNSt3__119ostreambuf_iteratorIcNS_11char_traitsIcEEEC2B8ue170006ERNS_13basic_ostreamIcS2_EE, symObjAddr: 0x3398, symBinAddr: 0x100004C44, symSize: 0x54 }
  - { offsetInCU: 0xCB39, offset: 0xCB39, size: 0x8, addend: 0x0, symName: __ZNKSt3__19basic_iosIcNS_11char_traitsIcEEE5rdbufB8ue170006Ev, symObjAddr: 0x33EC, symBinAddr: 0x100004C98, symSize: 0x24 }
  - { offsetInCU: 0xCB60, offset: 0xCB60, size: 0x8, addend: 0x0, symName: __ZNKSt3__18ios_base5rdbufB8ue170006Ev, symObjAddr: 0x3410, symBinAddr: 0x100004CBC, symSize: 0x18 }
  - { offsetInCU: 0xCB85, offset: 0xCB85, size: 0x8, addend: 0x0, symName: __ZNSt3__111char_traitsIcE11eq_int_typeB8ue170006Eii, symObjAddr: 0x3428, symBinAddr: 0x100004CD4, symSize: 0x28 }
  - { offsetInCU: 0xCBB8, offset: 0xCBB8, size: 0x8, addend: 0x0, symName: __ZNSt3__111char_traitsIcE3eofB8ue170006Ev, symObjAddr: 0x3450, symBinAddr: 0x100004CFC, symSize: 0x8 }
  - { offsetInCU: 0xCBCB, offset: 0xCBCB, size: 0x8, addend: 0x0, symName: __ZNKSt3__19basic_iosIcNS_11char_traitsIcEEE5widenB8ue170006Ec, symObjAddr: 0x3458, symBinAddr: 0x100004D04, symSize: 0x84 }
  - { offsetInCU: 0xCC33, offset: 0xCC33, size: 0x8, addend: 0x0, symName: __ZNKSt3__15ctypeIcE5widenB8ue170006Ec, symObjAddr: 0x3508, symBinAddr: 0x100004DB4, symSize: 0x38 }
  - { offsetInCU: 0xCC66, offset: 0xCC66, size: 0x8, addend: 0x0, symName: __ZNSt3__18ios_base8setstateB8ue170006Ej, symObjAddr: 0x3540, symBinAddr: 0x100004DEC, symSize: 0x34 }
  - { offsetInCU: 0xCC9C, offset: 0xCC9C, size: 0x8, addend: 0x0, symName: __ZNSt3__112basic_stringIcNS_11char_traitsIcEENS_9allocatorIcEEEC2B8ue170006ILi0EEEPKc, symObjAddr: 0x3598, symBinAddr: 0x100004E44, symSize: 0x58 }
  - { offsetInCU: 0xCCDA, offset: 0xCCDA, size: 0x8, addend: 0x0, symName: __ZNKSt3__112basic_stringIcNS_11char_traitsIcEENS_9allocatorIcEEE4sizeB8ue170006Ev, symObjAddr: 0x35F0, symBinAddr: 0x100004E9C, symSize: 0x54 }
  - { offsetInCU: 0xCCFF, offset: 0xCCFF, size: 0x8, addend: 0x0, symName: __ZNSt3__111char_traitsIcE7compareB8ue170006EPKcS3_m, symObjAddr: 0x3644, symBinAddr: 0x100004EF0, symSize: 0x34 }
  - { offsetInCU: 0xCD3E, offset: 0xCD3E, size: 0x8, addend: 0x0, symName: __ZNKSt3__112basic_stringIcNS_11char_traitsIcEENS_9allocatorIcEEE15__get_long_sizeB8ue170006Ev, symObjAddr: 0x3678, symBinAddr: 0x100004F24, symSize: 0x28 }
  - { offsetInCU: 0xCD63, offset: 0xCD63, size: 0x8, addend: 0x0, symName: __ZNKSt3__112basic_stringIcNS_11char_traitsIcEENS_9allocatorIcEEE16__get_short_sizeB8ue170006Ev, symObjAddr: 0x36A0, symBinAddr: 0x100004F4C, symSize: 0x34 }
  - { offsetInCU: 0xCD88, offset: 0xCD88, size: 0x8, addend: 0x0, symName: __ZNSt3__16vectorIP7ToppingNS_9allocatorIS2_EEE11__make_iterB8ue170006EPS2_, symObjAddr: 0x36D4, symBinAddr: 0x100004F80, symSize: 0x30 }
  - { offsetInCU: 0xCDBC, offset: 0xCDBC, size: 0x8, addend: 0x0, symName: __ZNSt3__111__wrap_iterIPP7ToppingEC1B8ue170006ES3_, symObjAddr: 0x3704, symBinAddr: 0x100004FB0, symSize: 0x34 }
  - { offsetInCU: 0xCDF3, offset: 0xCDF3, size: 0x8, addend: 0x0, symName: __ZNSt3__111__wrap_iterIPP7ToppingEC2B8ue170006ES3_, symObjAddr: 0x3738, symBinAddr: 0x100004FE4, symSize: 0x20 }
  - { offsetInCU: 0xCE2A, offset: 0xCE2A, size: 0x8, addend: 0x0, symName: __ZNSt3__111__wrap_iterIPP7ToppingEpLB8ue170006El, symObjAddr: 0x3758, symBinAddr: 0x100005004, symSize: 0x28 }
  - { offsetInCU: 0xCE5D, offset: 0xCE5D, size: 0x8, addend: 0x0, symName: __ZNKSt3__16vectorIP7ToppingNS_9allocatorIS2_EEE6cbeginB8ue170006Ev, symObjAddr: 0x37C8, symBinAddr: 0x100005074, symSize: 0x2C }
  - { offsetInCU: 0xCE82, offset: 0xCE82, size: 0x8, addend: 0x0, symName: __ZNSt3__16vectorIP7ToppingNS_9allocatorIS2_EEE17__destruct_at_endB8ue170006EPS2_, symObjAddr: 0x37F4, symBinAddr: 0x1000050A0, symSize: 0x4C }
  - { offsetInCU: 0xCEC5, offset: 0xCEC5, size: 0x8, addend: 0x0, symName: __ZNKSt3__111__wrap_iterIPKP7ToppingE4baseB8ue170006Ev, symObjAddr: 0x3880, symBinAddr: 0x10000512C, symSize: 0x18 }
  - { offsetInCU: 0xCEE9, offset: 0xCEE9, size: 0x8, addend: 0x0, symName: __ZNKSt3__16vectorIP7ToppingNS_9allocatorIS2_EEE5beginB8ue170006Ev, symObjAddr: 0x3898, symBinAddr: 0x100005144, symSize: 0x30 }
  - { offsetInCU: 0xCF10, offset: 0xCF10, size: 0x8, addend: 0x0, symName: __ZNKSt3__16vectorIP7ToppingNS_9allocatorIS2_EEE11__make_iterB8ue170006EPKS2_, symObjAddr: 0x38C8, symBinAddr: 0x100005174, symSize: 0x30 }
  - { offsetInCU: 0xCF44, offset: 0xCF44, size: 0x8, addend: 0x0, symName: __ZNSt3__111__wrap_iterIPKP7ToppingEC1B8ue170006ES4_, symObjAddr: 0x38F8, symBinAddr: 0x1000051A4, symSize: 0x34 }
  - { offsetInCU: 0xCF7B, offset: 0xCF7B, size: 0x8, addend: 0x0, symName: __ZNSt3__111__wrap_iterIPKP7ToppingEC2B8ue170006ES4_, symObjAddr: 0x392C, symBinAddr: 0x1000051D8, symSize: 0x20 }
  - { offsetInCU: 0xCFB2, offset: 0xCFB2, size: 0x8, addend: 0x0, symName: __ZNKSt3__16vectorIP7ToppingNS_9allocatorIS2_EEE17__annotate_shrinkB8ue170006Em, symObjAddr: 0x394C, symBinAddr: 0x1000051F8, symSize: 0xB4 }
  - { offsetInCU: 0xD009, offset: 0xD009, size: 0x8, addend: 0x0, symName: __ZNKSt3__114__move_trivialclB8ue170006IP7ToppingS3_Li0EEENS_4pairIPT_PT0_EES6_S6_S8_, symObjAddr: 0x3B9C, symBinAddr: 0x100005448, symSize: 0x48 }
  - { offsetInCU: 0xD075, offset: 0xD075, size: 0x8, addend: 0x0, symName: __ZNSt3__14pairIPP7ToppingS3_EC1B8ue170006IRS3_S3_LPv0EEEOT_OT0_, symObjAddr: 0x3DC4, symBinAddr: 0x100005670, symSize: 0x3C }
  - { offsetInCU: 0xD0D2, offset: 0xD0D2, size: 0x8, addend: 0x0, symName: __ZNSt3__14pairIPP7ToppingS3_EC2B8ue170006IRS3_S3_LPv0EEEOT_OT0_, symObjAddr: 0x3E00, symBinAddr: 0x1000056AC, symSize: 0x34 }
  - { offsetInCU: 0xD12F, offset: 0xD12F, size: 0x8, addend: 0x0, symName: __ZNSt3__118__unwrap_iter_implIPP7ToppingLb1EE8__unwrapB8ue170006ES3_, symObjAddr: 0x3E34, symBinAddr: 0x1000056E0, symSize: 0x24 }
  - { offsetInCU: 0xD152, offset: 0xD152, size: 0x8, addend: 0x0, symName: __ZNSt3__14pairIPP7ToppingS3_EC1B8ue170006IS3_S3_LPv0EEEOT_OT0_, symObjAddr: 0x3E58, symBinAddr: 0x100005704, symSize: 0x3C }
  - { offsetInCU: 0xD1AF, offset: 0xD1AF, size: 0x8, addend: 0x0, symName: __ZNSt3__14pairIPP7ToppingS3_EC2B8ue170006IS3_S3_LPv0EEEOT_OT0_, symObjAddr: 0x3E94, symBinAddr: 0x100005740, symSize: 0x34 }
  - { offsetInCU: 0xD20C, offset: 0xD20C, size: 0x8, addend: 0x0, symName: __ZNSt3__118__unwrap_iter_implIPP7ToppingLb1EE8__rewrapB8ue170006ES3_S3_, symObjAddr: 0x3EC8, symBinAddr: 0x100005774, symSize: 0x50 }
  - { offsetInCU: 0xD23D, offset: 0xD23D, size: 0x8, addend: 0x0, symName: __ZNSt3__111__wrap_iterIPKP7ToppingEC2B8ue170006IPS2_EERKNS0_IT_EEPNS_9enable_ifIXsr14is_convertibleIS8_S4_EE5valueEvE4typeE, symObjAddr: 0x3F18, symBinAddr: 0x1000057C4, symSize: 0x40 }
  - { offsetInCU: 0x26, offset: 0xD38E, size: 0x8, addend: 0x0, symName: __ZN11PlayerPizzaC2Ev, symObjAddr: 0x0, symBinAddr: 0x100005804, symSize: 0x5C }
  - { offsetInCU: 0x5938, offset: 0x12CA0, size: 0x8, addend: 0x0, symName: __ZN11PlayerPizzaC2Ev, symObjAddr: 0x0, symBinAddr: 0x100005804, symSize: 0x5C }
  - { offsetInCU: 0x5963, offset: 0x12CCB, size: 0x8, addend: 0x0, symName: __ZN11PlayerPizzaC1Ev, symObjAddr: 0x5C, symBinAddr: 0x100005860, symSize: 0x2C }
  - { offsetInCU: 0x598E, offset: 0x12CF6, size: 0x8, addend: 0x0, symName: __ZN11PlayerPizza16setOvenStartTimeEv, symObjAddr: 0x88, symBinAddr: 0x10000588C, symSize: 0x34 }
  - { offsetInCU: 0x59B5, offset: 0x12D1D, size: 0x8, addend: 0x0, symName: __ZN11PlayerPizza15setOvenDurationEv, symObjAddr: 0xBC, symBinAddr: 0x1000058C0, symSize: 0x44 }
  - { offsetInCU: 0x59EA, offset: 0x12D52, size: 0x8, addend: 0x0, symName: __ZN11PlayerPizza15getOvenDurationEv, symObjAddr: 0x100, symBinAddr: 0x100005904, symSize: 0x18 }
  - { offsetInCU: 0x5A11, offset: 0x12D79, size: 0x8, addend: 0x0, symName: __ZN11PlayerPizza8getIsCutEv, symObjAddr: 0x118, symBinAddr: 0x10000591C, symSize: 0x1C }
  - { offsetInCU: 0x5A38, offset: 0x12DA0, size: 0x8, addend: 0x0, symName: __ZN11PlayerPizza10getIsBakedEv, symObjAddr: 0x134, symBinAddr: 0x100005938, symSize: 0x1C }
  - { offsetInCU: 0x5A5F, offset: 0x12DC7, size: 0x8, addend: 0x0, symName: __ZN11PlayerPizza11getIsToppedEv, symObjAddr: 0x150, symBinAddr: 0x100005954, symSize: 0x1C }
  - { offsetInCU: 0x5A86, offset: 0x12DEE, size: 0x8, addend: 0x0, symName: __ZN11PlayerPizza12getTotalTipsEv, symObjAddr: 0x16C, symBinAddr: 0x100005970, symSize: 0x18 }
  - { offsetInCU: 0x5AAD, offset: 0x12E15, size: 0x8, addend: 0x0, symName: __ZN11PlayerPizza12setTotalTipsEf, symObjAddr: 0x184, symBinAddr: 0x100005988, symSize: 0x20 }
  - { offsetInCU: 0x5AE2, offset: 0x12E4A, size: 0x8, addend: 0x0, symName: __ZN11PlayerPizza8setIsCutEb, symObjAddr: 0x1A4, symBinAddr: 0x1000059A8, symSize: 0x2C }
  - { offsetInCU: 0x5B17, offset: 0x12E7F, size: 0x8, addend: 0x0, symName: __ZN11PlayerPizza10setIsBakedEb, symObjAddr: 0x1D0, symBinAddr: 0x1000059D4, symSize: 0x2C }
  - { offsetInCU: 0x5B4B, offset: 0x12EB3, size: 0x8, addend: 0x0, symName: __ZN11PlayerPizza11setIsToppedEb, symObjAddr: 0x1FC, symBinAddr: 0x100005A00, symSize: 0x2C }
  - { offsetInCU: 0x5B80, offset: 0x12EE8, size: 0x8, addend: 0x0, symName: __ZN11PlayerPizza15updateTotalTipsEff, symObjAddr: 0x228, symBinAddr: 0x100005A2C, symSize: 0x34 }
  - { offsetInCU: 0x48EC, offset: 0x1781C, size: 0x8, addend: 0x0, symName: __ZN7ToppingC2Ev, symObjAddr: 0x0, symBinAddr: 0x100005A60, symSize: 0xB0 }
  - { offsetInCU: 0x491C, offset: 0x1784C, size: 0x8, addend: 0x0, symName: __ZN7ToppingC2ENSt3__112basic_stringIcNS0_11char_traitsIcEENS0_9allocatorIcEEEEi, symObjAddr: 0x1B0, symBinAddr: 0x100005B10, symSize: 0x94 }
  - { offsetInCU: 0x4964, offset: 0x17894, size: 0x8, addend: 0x0, symName: __ZNSt3__112basic_stringIcNS_11char_traitsIcEENS_9allocatorIcEEEC1B8ue170006Ev, symObjAddr: 0x244, symBinAddr: 0x100005BA4, symSize: 0x2C }
  - { offsetInCU: 0x498D, offset: 0x178BD, size: 0x8, addend: 0x0, symName: __ZN7Topping13getNumToppingEv, symObjAddr: 0x270, symBinAddr: 0x100005BD0, symSize: 0x18 }
  - { offsetInCU: 0x49B3, offset: 0x178E3, size: 0x8, addend: 0x0, symName: __ZN7Topping13setNumToppingEi, symObjAddr: 0x288, symBinAddr: 0x100005BE8, symSize: 0x20 }
  - { offsetInCU: 0x49E8, offset: 0x17918, size: 0x8, addend: 0x0, symName: __ZN7Topping21getNumToppingIncreaseEv, symObjAddr: 0x2A8, symBinAddr: 0x100005C08, symSize: 0x18 }
  - { offsetInCU: 0x4A0F, offset: 0x1793F, size: 0x8, addend: 0x0, symName: __ZN7Topping21setNumToppingIncreaseEi, symObjAddr: 0x2C0, symBinAddr: 0x100005C20, symSize: 0x20 }
  - { offsetInCU: 0x4A44, offset: 0x17974, size: 0x8, addend: 0x0, symName: __ZN7Topping14getToppingTypeEv, symObjAddr: 0x2E0, symBinAddr: 0x100005C40, symSize: 0x3C }
  - { offsetInCU: 0x4A6B, offset: 0x1799B, size: 0x8, addend: 0x0, symName: __ZN7Topping14setToppingTypeENSt3__112basic_stringIcNS0_11char_traitsIcEENS0_9allocatorIcEEEE, symObjAddr: 0x31C, symBinAddr: 0x100005C7C, symSize: 0x30 }
  - { offsetInCU: 0x4AA1, offset: 0x179D1, size: 0x8, addend: 0x0, symName: __ZN7ToppingD2Ev, symObjAddr: 0x34C, symBinAddr: 0x100005CAC, symSize: 0x40 }
  - { offsetInCU: 0x4ACC, offset: 0x179FC, size: 0x8, addend: 0x0, symName: __ZN7ToppingD1Ev, symObjAddr: 0x38C, symBinAddr: 0x100005CEC, symSize: 0x14 }
  - { offsetInCU: 0x4AF7, offset: 0x17A27, size: 0x8, addend: 0x0, symName: __ZN7ToppingD0Ev, symObjAddr: 0x3A0, symBinAddr: 0x100005D00, symSize: 0xC }
  - { offsetInCU: 0x4B22, offset: 0x17A52, size: 0x8, addend: 0x0, symName: __ZNSt3__112basic_stringIcNS_11char_traitsIcEENS_9allocatorIcEEEC2B8ue170006Ev, symObjAddr: 0xEF0, symBinAddr: 0x100005D0C, symSize: 0x48 }
  - { offsetInCU: 0x4B4B, offset: 0x17A7B, size: 0x8, addend: 0x0, symName: __ZNSt3__112basic_stringIcNS_11char_traitsIcEENS_9allocatorIcEEE14__default_initB8ue170006Ev, symObjAddr: 0xF38, symBinAddr: 0x100005D54, symSize: 0x40 }
  - { offsetInCU: 0x4B70, offset: 0x17AA0, size: 0x8, addend: 0x0, symName: __ZNSt3__117__compressed_pairINS_12basic_stringIcNS_11char_traitsIcEENS_9allocatorIcEEE5__repES5_E5firstB8ue170006Ev, symObjAddr: 0xF78, symBinAddr: 0x100005D94, symSize: 0x24 }
  - { offsetInCU: 0x4B95, offset: 0x17AC5, size: 0x8, addend: 0x0, symName: __ZNSt3__122__compressed_pair_elemINS_12basic_stringIcNS_11char_traitsIcEENS_9allocatorIcEEE5__repELi0ELb0EE5__getB8ue170006Ev, symObjAddr: 0xF9C, symBinAddr: 0x100005DB8, symSize: 0x14 }
  - { offsetInCU: 0x4924, offset: 0x1C418, size: 0x8, addend: 0x0, symName: __ZN4MeatC2ENSt3__112basic_stringIcNS0_11char_traitsIcEENS0_9allocatorIcEEEE, symObjAddr: 0x0, symBinAddr: 0x100005DCC, symSize: 0x90 }
  - { offsetInCU: 0x495E, offset: 0x1C452, size: 0x8, addend: 0x0, symName: __ZN4MeatC1ENSt3__112basic_stringIcNS0_11char_traitsIcEENS0_9allocatorIcEEEE, symObjAddr: 0x90, symBinAddr: 0x100005E5C, symSize: 0x34 }
  - { offsetInCU: 0x4998, offset: 0x1C48C, size: 0x8, addend: 0x0, symName: __ZN4Meat13renderToppingEv, symObjAddr: 0xC4, symBinAddr: 0x100005E90, symSize: 0x3C }
  - { offsetInCU: 0x49BF, offset: 0x1C4B3, size: 0x8, addend: 0x0, symName: __ZN4MeatD1Ev, symObjAddr: 0x1CC, symBinAddr: 0x100005ECC, symSize: 0x2C }
  - { offsetInCU: 0x49EA, offset: 0x1C4DE, size: 0x8, addend: 0x0, symName: __ZN4MeatD0Ev, symObjAddr: 0x1F8, symBinAddr: 0x100005EF8, symSize: 0x30 }
  - { offsetInCU: 0x4A15, offset: 0x1C509, size: 0x8, addend: 0x0, symName: __ZN4MeatD2Ev, symObjAddr: 0x228, symBinAddr: 0x100005F28, symSize: 0x2C }
  - { offsetInCU: 0x4924, offset: 0x20E5D, size: 0x8, addend: 0x0, symName: __ZN10FruitOrVegC2ENSt3__112basic_stringIcNS0_11char_traitsIcEENS0_9allocatorIcEEEE, symObjAddr: 0x0, symBinAddr: 0x100005F54, symSize: 0x90 }
  - { offsetInCU: 0x495E, offset: 0x20E97, size: 0x8, addend: 0x0, symName: __ZN10FruitOrVegC1ENSt3__112basic_stringIcNS0_11char_traitsIcEENS0_9allocatorIcEEEE, symObjAddr: 0x90, symBinAddr: 0x100005FE4, symSize: 0x34 }
  - { offsetInCU: 0x4998, offset: 0x20ED1, size: 0x8, addend: 0x0, symName: __ZN10FruitOrVeg13renderToppingEv, symObjAddr: 0xC4, symBinAddr: 0x100006018, symSize: 0x3C }
  - { offsetInCU: 0x49BF, offset: 0x20EF8, size: 0x8, addend: 0x0, symName: __ZN10FruitOrVegD1Ev, symObjAddr: 0x1CC, symBinAddr: 0x100006054, symSize: 0x2C }
  - { offsetInCU: 0x49EA, offset: 0x20F23, size: 0x8, addend: 0x0, symName: __ZN10FruitOrVegD0Ev, symObjAddr: 0x1F8, symBinAddr: 0x100006080, symSize: 0x30 }
  - { offsetInCU: 0x4A15, offset: 0x20F4E, size: 0x8, addend: 0x0, symName: __ZN10FruitOrVegD2Ev, symObjAddr: 0x228, symBinAddr: 0x1000060B0, symSize: 0x2C }
  - { offsetInCU: 0x4939, offset: 0x258B7, size: 0x8, addend: 0x0, symName: __ZN9PepperoniC2Ev, symObjAddr: 0x0, symBinAddr: 0x1000060DC, symSize: 0x8C }
  - { offsetInCU: 0x4969, offset: 0x258E7, size: 0x8, addend: 0x0, symName: __ZN9PepperoniC1Ev, symObjAddr: 0xC0, symBinAddr: 0x100006168, symSize: 0x2C }
  - { offsetInCU: 0x4994, offset: 0x25912, size: 0x8, addend: 0x0, symName: __ZN9Pepperoni13renderToppingEv, symObjAddr: 0xEC, symBinAddr: 0x100006194, symSize: 0x3C }
  - { offsetInCU: 0x49BB, offset: 0x25939, size: 0x8, addend: 0x0, symName: __ZN9PepperoniD1Ev, symObjAddr: 0x1F4, symBinAddr: 0x1000061D0, symSize: 0x2C }
  - { offsetInCU: 0x49E6, offset: 0x25964, size: 0x8, addend: 0x0, symName: __ZN9PepperoniD0Ev, symObjAddr: 0x220, symBinAddr: 0x1000061FC, symSize: 0x30 }
  - { offsetInCU: 0x4A11, offset: 0x2598F, size: 0x8, addend: 0x0, symName: __ZN9PepperoniD2Ev, symObjAddr: 0x250, symBinAddr: 0x10000622C, symSize: 0x2C }
  - { offsetInCU: 0x4939, offset: 0x2A2F8, size: 0x8, addend: 0x0, symName: __ZN7ChickenC2Ev, symObjAddr: 0x0, symBinAddr: 0x100006258, symSize: 0x8C }
  - { offsetInCU: 0x4969, offset: 0x2A328, size: 0x8, addend: 0x0, symName: __ZN7ChickenC1Ev, symObjAddr: 0xC0, symBinAddr: 0x1000062E4, symSize: 0x2C }
  - { offsetInCU: 0x4994, offset: 0x2A353, size: 0x8, addend: 0x0, symName: __ZN7Chicken13renderToppingEv, symObjAddr: 0xEC, symBinAddr: 0x100006310, symSize: 0x3C }
  - { offsetInCU: 0x49BB, offset: 0x2A37A, size: 0x8, addend: 0x0, symName: __ZN7ChickenD1Ev, symObjAddr: 0x1F4, symBinAddr: 0x10000634C, symSize: 0x2C }
  - { offsetInCU: 0x49E6, offset: 0x2A3A5, size: 0x8, addend: 0x0, symName: __ZN7ChickenD0Ev, symObjAddr: 0x220, symBinAddr: 0x100006378, symSize: 0x30 }
  - { offsetInCU: 0x4A11, offset: 0x2A3D0, size: 0x8, addend: 0x0, symName: __ZN7ChickenD2Ev, symObjAddr: 0x250, symBinAddr: 0x1000063A8, symSize: 0x2C }
  - { offsetInCU: 0x4939, offset: 0x2ED39, size: 0x8, addend: 0x0, symName: __ZN9PineappleC2Ev, symObjAddr: 0x0, symBinAddr: 0x1000063D4, symSize: 0x8C }
  - { offsetInCU: 0x4969, offset: 0x2ED69, size: 0x8, addend: 0x0, symName: __ZN9PineappleC1Ev, symObjAddr: 0xC0, symBinAddr: 0x100006460, symSize: 0x2C }
  - { offsetInCU: 0x4994, offset: 0x2ED94, size: 0x8, addend: 0x0, symName: __ZN9Pineapple13renderToppingEv, symObjAddr: 0xEC, symBinAddr: 0x10000648C, symSize: 0x3C }
  - { offsetInCU: 0x49BB, offset: 0x2EDBB, size: 0x8, addend: 0x0, symName: __ZN9PineappleD1Ev, symObjAddr: 0x1F4, symBinAddr: 0x1000064C8, symSize: 0x2C }
  - { offsetInCU: 0x49E6, offset: 0x2EDE6, size: 0x8, addend: 0x0, symName: __ZN9PineappleD0Ev, symObjAddr: 0x220, symBinAddr: 0x1000064F4, symSize: 0x30 }
  - { offsetInCU: 0x4A11, offset: 0x2EE11, size: 0x8, addend: 0x0, symName: __ZN9PineappleD2Ev, symObjAddr: 0x250, symBinAddr: 0x100006524, symSize: 0x2C }
  - { offsetInCU: 0x4939, offset: 0x3377A, size: 0x8, addend: 0x0, symName: __ZN5OliveC2Ev, symObjAddr: 0x0, symBinAddr: 0x100006550, symSize: 0x8C }
  - { offsetInCU: 0x4969, offset: 0x337AA, size: 0x8, addend: 0x0, symName: __ZN5OliveC1Ev, symObjAddr: 0xC0, symBinAddr: 0x1000065DC, symSize: 0x2C }
  - { offsetInCU: 0x4994, offset: 0x337D5, size: 0x8, addend: 0x0, symName: __ZN5Olive13renderToppingEv, symObjAddr: 0xEC, symBinAddr: 0x100006608, symSize: 0x3C }
  - { offsetInCU: 0x49BB, offset: 0x337FC, size: 0x8, addend: 0x0, symName: __ZN5OliveD1Ev, symObjAddr: 0x1F4, symBinAddr: 0x100006644, symSize: 0x2C }
  - { offsetInCU: 0x49E6, offset: 0x33827, size: 0x8, addend: 0x0, symName: __ZN5OliveD0Ev, symObjAddr: 0x220, symBinAddr: 0x100006670, symSize: 0x30 }
  - { offsetInCU: 0x4A11, offset: 0x33852, size: 0x8, addend: 0x0, symName: __ZN5OliveD2Ev, symObjAddr: 0x250, symBinAddr: 0x1000066A0, symSize: 0x2C }
  - { offsetInCU: 0x1089, offset: 0x3490B, size: 0x8, addend: 0x0, symName: __ZNSt3__17advanceB8ue170006IPKillvEEvRT_T0_, symObjAddr: 0x10CC, symBinAddr: 0x100007710, symSize: 0x38 }
  - { offsetInCU: 0x2E7A, offset: 0x366FC, size: 0x8, addend: 0x0, symName: __ZNSt3__17advanceB8ue170006IPillvEEvRT_T0_, symObjAddr: 0x2324, symBinAddr: 0x1000086B4, symSize: 0x38 }
  - { offsetInCU: 0x4570, offset: 0x37DF2, size: 0x8, addend: 0x0, symName: __ZNSt3__112__to_addressB8ue170006IiEEPT_S2_, symObjAddr: 0x938, symBinAddr: 0x100006FF8, symSize: 0x14 }
  - { offsetInCU: 0x45A5, offset: 0x37E27, size: 0x8, addend: 0x0, symName: __ZNSt3__18distanceB8ue170006IPKiEENS_15iterator_traitsIT_E15difference_typeES4_S4_, symObjAddr: 0xD1C, symBinAddr: 0x100007360, symSize: 0x2C }
  - { offsetInCU: 0x45E8, offset: 0x37E6A, size: 0x8, addend: 0x0, symName: __ZNSt3__14nextB8ue170006IPKiEENS_9enable_ifIXsr29__has_input_iterator_categoryIT_EE5valueES4_E4typeES4_NS_15iterator_traitsIS4_E15difference_typeE, symObjAddr: 0xD48, symBinAddr: 0x10000738C, symSize: 0x34 }
  - { offsetInCU: 0x462B, offset: 0x37EAD, size: 0x8, addend: 0x0, symName: __ZNSt3__14copyB8ue170006IPKiPiEET0_T_S5_S4_, symObjAddr: 0xD7C, symBinAddr: 0x1000073C0, symSize: 0x40 }
  - { offsetInCU: 0x4685, offset: 0x37F07, size: 0x8, addend: 0x0, symName: __ZNSt3__16__copyB8ue170006INS_17_ClassicAlgPolicyEPKiS3_PiEENS_4pairIT0_T2_EES6_T1_S7_, symObjAddr: 0xE48, symBinAddr: 0x10000748C, symSize: 0x44 }
  - { offsetInCU: 0x46F1, offset: 0x37F73, size: 0x8, addend: 0x0, symName: __ZNSt3__121__convert_to_integralB8ue170006El, symObjAddr: 0x1104, symBinAddr: 0x100007748, symSize: 0x14 }
  - { offsetInCU: 0x471D, offset: 0x37F9F, size: 0x8, addend: 0x0, symName: __ZNSt3__19__advanceB8ue170006IPKiEEvRT_NS_15iterator_traitsIS3_E15difference_typeENS_26random_access_iterator_tagE, symObjAddr: 0x1118, symBinAddr: 0x10000775C, symSize: 0x28 }
  - { offsetInCU: 0x4768, offset: 0x37FEA, size: 0x8, addend: 0x0, symName: __ZNSt3__130__uninitialized_allocator_copyB8ue170006INS_9allocatorIiEEPKiS4_PiEET2_RT_T0_T1_S6_, symObjAddr: 0x117C, symBinAddr: 0x1000077C0, symSize: 0x80 }
  - { offsetInCU: 0x4805, offset: 0x38087, size: 0x8, addend: 0x0, symName: __ZNSt3__114__unwrap_rangeB8ue170006IPKiS2_EENS_4pairIT0_S4_EET_S6_, symObjAddr: 0x126C, symBinAddr: 0x1000078B0, symSize: 0x60 }
  - { offsetInCU: 0x4851, offset: 0x380D3, size: 0x8, addend: 0x0, symName: __ZNSt3__135__uninitialized_allocator_copy_implB8ue170006INS_9allocatorIiEEKiiiLPv0EEEPT2_RT_PT0_SA_S6_, symObjAddr: 0x12CC, symBinAddr: 0x100007910, symSize: 0x38 }
  - { offsetInCU: 0x48D2, offset: 0x38154, size: 0x8, addend: 0x0, symName: __ZNSt3__113__unwrap_iterB8ue170006IPiNS_18__unwrap_iter_implIS1_Lb1EEELi0EEEDTclsrT0_8__unwrapclsr3stdE7declvalIT_EEEES5_, symObjAddr: 0x1304, symBinAddr: 0x100007948, symSize: 0x24 }
  - { offsetInCU: 0x4916, offset: 0x38198, size: 0x8, addend: 0x0, symName: __ZNSt3__113__rewrap_iterB8ue170006IPiS1_NS_18__unwrap_iter_implIS1_Lb1EEEEET_S4_T0_, symObjAddr: 0x1328, symBinAddr: 0x10000796C, symSize: 0x3C }
  - { offsetInCU: 0x496B, offset: 0x381ED, size: 0x8, addend: 0x0, symName: __ZNSt3__19make_pairB8ue170006IPKiS2_EENS_4pairINS_18__unwrap_ref_decayIT_E4typeENS4_IT0_E4typeEEEOS5_OS8_, symObjAddr: 0x1364, symBinAddr: 0x1000079A8, symSize: 0x38 }
  - { offsetInCU: 0x49BA, offset: 0x3823C, size: 0x8, addend: 0x0, symName: __ZNSt3__113__unwrap_iterB8ue170006IPKiNS_18__unwrap_iter_implIS2_Lb1EEELi0EEEDTclsrT0_8__unwrapclsr3stdE7declvalIT_EEEES6_, symObjAddr: 0x139C, symBinAddr: 0x1000079E0, symSize: 0x24 }
  - { offsetInCU: 0x4B25, offset: 0x383A7, size: 0x8, addend: 0x0, symName: __ZNSt3__112__to_addressB8ue170006IKiEEPT_S3_, symObjAddr: 0x1454, symBinAddr: 0x100007A98, symSize: 0x14 }
  - { offsetInCU: 0x4BAD, offset: 0x3842F, size: 0x8, addend: 0x0, symName: __ZNSt3__123__dispatch_copy_or_moveB8ue170006INS_17_ClassicAlgPolicyENS_11__copy_loopIS1_EENS_14__copy_trivialEPKiS6_PiEENS_4pairIT2_T4_EES9_T3_SA_, symObjAddr: 0x14FC, symBinAddr: 0x100007B40, symSize: 0x44 }
  - { offsetInCU: 0x4C2B, offset: 0x384AD, size: 0x8, addend: 0x0, symName: __ZNSt3__121__unwrap_and_dispatchB8ue170006INS_10__overloadINS_11__copy_loopINS_17_ClassicAlgPolicyEEENS_14__copy_trivialEEEPKiS8_PiLi0EEENS_4pairIT0_T2_EESB_T1_SC_, symObjAddr: 0x1540, symBinAddr: 0x100007B84, symSize: 0xB4 }
  - { offsetInCU: 0x4E3E, offset: 0x386C0, size: 0x8, addend: 0x0, symName: __ZNSt3__19make_pairB8ue170006IPKiPiEENS_4pairINS_18__unwrap_ref_decayIT_E4typeENS5_IT0_E4typeEEEOS6_OS9_, symObjAddr: 0x163C, symBinAddr: 0x100007C80, symSize: 0x38 }
  - { offsetInCU: 0x4E8D, offset: 0x3870F, size: 0x8, addend: 0x0, symName: __ZNSt3__114__rewrap_rangeB8ue170006IPKiS2_EET_S3_T0_, symObjAddr: 0x1674, symBinAddr: 0x100007CB8, symSize: 0x2C }
  - { offsetInCU: 0x4ED9, offset: 0x3875B, size: 0x8, addend: 0x0, symName: __ZNSt3__119__copy_trivial_implB8ue170006IKiiEENS_4pairIPT_PT0_EES4_S4_S6_, symObjAddr: 0x16A0, symBinAddr: 0x100007CE4, symSize: 0x80 }
  - { offsetInCU: 0x4F41, offset: 0x387C3, size: 0x8, addend: 0x0, symName: __ZNSt3__119__constexpr_memmoveB8ue170006IiKiLi0EEEPT_S3_PT0_NS_15__element_countE, symObjAddr: 0x1720, symBinAddr: 0x100007D64, symSize: 0x64 }
  - { offsetInCU: 0x4FAF, offset: 0x38831, size: 0x8, addend: 0x0, symName: __ZNSt3__19make_pairB8ue170006IRPKiPiEENS_4pairINS_18__unwrap_ref_decayIT_E4typeENS6_IT0_E4typeEEEOS7_OSA_, symObjAddr: 0x1784, symBinAddr: 0x100007DC8, symSize: 0x38 }
  - { offsetInCU: 0x4FFE, offset: 0x38880, size: 0x8, addend: 0x0, symName: __ZNSt3__113__rewrap_iterB8ue170006IPKiS2_NS_18__unwrap_iter_implIS2_Lb1EEEEET_S5_T0_, symObjAddr: 0x189C, symBinAddr: 0x100007EE0, symSize: 0x3C }
  - { offsetInCU: 0x5053, offset: 0x388D5, size: 0x8, addend: 0x0, symName: __ZNSt3__119__allocate_at_leastB8ue170006INS_9allocatorIiEEEENS_19__allocation_resultINS_16allocator_traitsIT_E7pointerEEERS5_m, symObjAddr: 0x1AFC, symBinAddr: 0x100008140, symSize: 0x40 }
  - { offsetInCU: 0x5096, offset: 0x38918, size: 0x8, addend: 0x0, symName: __ZNSt3__110__distanceB8ue170006IPKiEENS_15iterator_traitsIT_E15difference_typeES4_S4_NS_26random_access_iterator_tagE, symObjAddr: 0x1F8C, symBinAddr: 0x10000831C, symSize: 0x28 }
  - { offsetInCU: 0x50E4, offset: 0x38966, size: 0x8, addend: 0x0, symName: __ZNSt3__18distanceB8ue170006IPiEENS_15iterator_traitsIT_E15difference_typeES3_S3_, symObjAddr: 0x21B4, symBinAddr: 0x100008544, symSize: 0x2C }
  - { offsetInCU: 0x5127, offset: 0x389A9, size: 0x8, addend: 0x0, symName: __ZNSt3__14nextB8ue170006IPiEENS_9enable_ifIXsr29__has_input_iterator_categoryIT_EE5valueES3_E4typeES3_NS_15iterator_traitsIS3_E15difference_typeE, symObjAddr: 0x21E0, symBinAddr: 0x100008570, symSize: 0x34 }
  - { offsetInCU: 0x516A, offset: 0x389EC, size: 0x8, addend: 0x0, symName: __ZNSt3__14copyB8ue170006IPiS1_EET0_T_S3_S2_, symObjAddr: 0x2214, symBinAddr: 0x1000085A4, symSize: 0x40 }
  - { offsetInCU: 0x51C4, offset: 0x38A46, size: 0x8, addend: 0x0, symName: __ZNSt3__16__copyB8ue170006INS_17_ClassicAlgPolicyEPiS2_S2_EENS_4pairIT0_T2_EES4_T1_S5_, symObjAddr: 0x22E0, symBinAddr: 0x100008670, symSize: 0x44 }
  - { offsetInCU: 0x5230, offset: 0x38AB2, size: 0x8, addend: 0x0, symName: __ZNSt3__19__advanceB8ue170006IPiEEvRT_NS_15iterator_traitsIS2_E15difference_typeENS_26random_access_iterator_tagE, symObjAddr: 0x235C, symBinAddr: 0x1000086EC, symSize: 0x28 }
  - { offsetInCU: 0x527B, offset: 0x38AFD, size: 0x8, addend: 0x0, symName: __ZNSt3__130__uninitialized_allocator_copyB8ue170006INS_9allocatorIiEEPiS3_S3_EET2_RT_T0_T1_S4_, symObjAddr: 0x2384, symBinAddr: 0x100008714, symSize: 0x80 }
  - { offsetInCU: 0x5318, offset: 0x38B9A, size: 0x8, addend: 0x0, symName: __ZNSt3__114__unwrap_rangeB8ue170006IPiS1_EENS_4pairIT0_S3_EET_S5_, symObjAddr: 0x2404, symBinAddr: 0x100008794, symSize: 0x60 }
  - { offsetInCU: 0x5364, offset: 0x38BE6, size: 0x8, addend: 0x0, symName: __ZNSt3__135__uninitialized_allocator_copy_implB8ue170006INS_9allocatorIiEEiiiLPv0EEEPT2_RT_PT0_S9_S5_, symObjAddr: 0x2464, symBinAddr: 0x1000087F4, symSize: 0x38 }
  - { offsetInCU: 0x53E5, offset: 0x38C67, size: 0x8, addend: 0x0, symName: __ZNSt3__19make_pairB8ue170006IPiS1_EENS_4pairINS_18__unwrap_ref_decayIT_E4typeENS3_IT0_E4typeEEEOS4_OS7_, symObjAddr: 0x249C, symBinAddr: 0x10000882C, symSize: 0x38 }
  - { offsetInCU: 0x5537, offset: 0x38DB9, size: 0x8, addend: 0x0, symName: __ZNSt3__123__dispatch_copy_or_moveB8ue170006INS_17_ClassicAlgPolicyENS_11__copy_loopIS1_EENS_14__copy_trivialEPiS5_S5_EENS_4pairIT2_T4_EES7_T3_S8_, symObjAddr: 0x2544, symBinAddr: 0x1000088D4, symSize: 0x44 }
  - { offsetInCU: 0x55B5, offset: 0x38E37, size: 0x8, addend: 0x0, symName: __ZNSt3__121__unwrap_and_dispatchB8ue170006INS_10__overloadINS_11__copy_loopINS_17_ClassicAlgPolicyEEENS_14__copy_trivialEEEPiS7_S7_Li0EEENS_4pairIT0_T2_EES9_T1_SA_, symObjAddr: 0x2588, symBinAddr: 0x100008918, symSize: 0xB4 }
  - { offsetInCU: 0x5643, offset: 0x38EC5, size: 0x8, addend: 0x0, symName: __ZNSt3__114__rewrap_rangeB8ue170006IPiS1_EET_S2_T0_, symObjAddr: 0x2684, symBinAddr: 0x100008A14, symSize: 0x2C }
  - { offsetInCU: 0x568F, offset: 0x38F11, size: 0x8, addend: 0x0, symName: __ZNSt3__119__copy_trivial_implB8ue170006IiiEENS_4pairIPT_PT0_EES3_S3_S5_, symObjAddr: 0x26B0, symBinAddr: 0x100008A40, symSize: 0x80 }
  - { offsetInCU: 0x56F7, offset: 0x38F79, size: 0x8, addend: 0x0, symName: __ZNSt3__119__constexpr_memmoveB8ue170006IiiLi0EEEPT_S2_PT0_NS_15__element_countE, symObjAddr: 0x2730, symBinAddr: 0x100008AC0, symSize: 0x64 }
  - { offsetInCU: 0x5765, offset: 0x38FE7, size: 0x8, addend: 0x0, symName: __ZNSt3__19make_pairB8ue170006IRPiS1_EENS_4pairINS_18__unwrap_ref_decayIT_E4typeENS4_IT0_E4typeEEEOS5_OS8_, symObjAddr: 0x2794, symBinAddr: 0x100008B24, symSize: 0x38 }
  - { offsetInCU: 0x57B4, offset: 0x39036, size: 0x8, addend: 0x0, symName: __ZNSt3__110__distanceB8ue170006IPiEENS_15iterator_traitsIT_E15difference_typeES3_S3_NS_26random_access_iterator_tagE, symObjAddr: 0x283C, symBinAddr: 0x100008BCC, symSize: 0x28 }
  - { offsetInCU: 0x7DAD, offset: 0x3B62F, size: 0x8, addend: 0x0, symName: __ZN13CustomerPizzaC2Ev, symObjAddr: 0x0, symBinAddr: 0x1000066CC, symSize: 0xB0 }
  - { offsetInCU: 0x7DD8, offset: 0x3B65A, size: 0x8, addend: 0x0, symName: __ZNSt3__16vectorIiNS_9allocatorIiEEEC1B8ue170006Ev, symObjAddr: 0xB0, symBinAddr: 0x10000677C, symSize: 0x2C }
  - { offsetInCU: 0x7E01, offset: 0x3B683, size: 0x8, addend: 0x0, symName: __ZNSt3__16vectorIiNS_9allocatorIiEEED1B8ue170006Ev, symObjAddr: 0xDC, symBinAddr: 0x1000067A8, symSize: 0x2C }
  - { offsetInCU: 0x7E2A, offset: 0x3B6AC, size: 0x8, addend: 0x0, symName: __ZN13CustomerPizzaC1Ev, symObjAddr: 0x108, symBinAddr: 0x1000067D4, symSize: 0x2C }
  - { offsetInCU: 0x7E55, offset: 0x3B6D7, size: 0x8, addend: 0x0, symName: __ZN13CustomerPizza18updateOvenDurationEv, symObjAddr: 0x134, symBinAddr: 0x100006800, symSize: 0x44 }
  - { offsetInCU: 0x7E7C, offset: 0x3B6FE, size: 0x8, addend: 0x0, symName: __ZN13CustomerPizza18updateToppingOrderEv, symObjAddr: 0x178, symBinAddr: 0x100006844, symSize: 0x100 }
  - { offsetInCU: 0x7EA3, offset: 0x3B725, size: 0x8, addend: 0x0, symName: __ZNSt3__16vectorIiNS_9allocatorIiEEE6assignB8ue170006ESt16initializer_listIiE, symObjAddr: 0x278, symBinAddr: 0x100006944, symSize: 0x5C }
  - { offsetInCU: 0x7ED7, offset: 0x3B759, size: 0x8, addend: 0x0, symName: __ZN13CustomerPizza13updateNumCutsEv, symObjAddr: 0x2D4, symBinAddr: 0x1000069A0, symSize: 0x44 }
  - { offsetInCU: 0x7EFE, offset: 0x3B780, size: 0x8, addend: 0x0, symName: __ZN13CustomerPizza16setOvenStartTimeEv, symObjAddr: 0x318, symBinAddr: 0x1000069E4, symSize: 0x10 }
  - { offsetInCU: 0x7F25, offset: 0x3B7A7, size: 0x8, addend: 0x0, symName: __ZN13CustomerPizza10getNumCutsEv, symObjAddr: 0x328, symBinAddr: 0x1000069F4, symSize: 0x18 }
  - { offsetInCU: 0x7F4C, offset: 0x3B7CE, size: 0x8, addend: 0x0, symName: __ZN13CustomerPizza10getBaseTipEv, symObjAddr: 0x340, symBinAddr: 0x100006A0C, symSize: 0x18 }
  - { offsetInCU: 0x7F73, offset: 0x3B7F5, size: 0x8, addend: 0x0, symName: __ZN13CustomerPizza15getOvenDurationEv, symObjAddr: 0x358, symBinAddr: 0x100006A24, symSize: 0x18 }
  - { offsetInCU: 0x7F9A, offset: 0x3B81C, size: 0x8, addend: 0x0, symName: __ZN13CustomerPizza15getToppingOrderEv, symObjAddr: 0x370, symBinAddr: 0x100006A3C, symSize: 0x18 }
  - { offsetInCU: 0x7FC1, offset: 0x3B843, size: 0x8, addend: 0x0, symName: __ZN13CustomerPizza10setNumCutsEi, symObjAddr: 0x388, symBinAddr: 0x100006A54, symSize: 0x20 }
  - { offsetInCU: 0x7FF6, offset: 0x3B878, size: 0x8, addend: 0x0, symName: __ZN13CustomerPizza10setBaseTipEf, symObjAddr: 0x3A8, symBinAddr: 0x100006A74, symSize: 0x20 }
  - { offsetInCU: 0x802B, offset: 0x3B8AD, size: 0x8, addend: 0x0, symName: __ZN13CustomerPizza15setToppingOrderENSt3__16vectorIiNS0_9allocatorIiEEEE, symObjAddr: 0x3C8, symBinAddr: 0x100006A94, symSize: 0x30 }
  - { offsetInCU: 0x8061, offset: 0x3B8E3, size: 0x8, addend: 0x0, symName: __ZNSt3__16vectorIiNS_9allocatorIiEEEaSB8ue170006ERKS3_, symObjAddr: 0x3F8, symBinAddr: 0x100006AC4, symSize: 0x68 }
  - { offsetInCU: 0x8096, offset: 0x3B918, size: 0x8, addend: 0x0, symName: __ZN13CustomerPizza15setOvenDurationEi, symObjAddr: 0x460, symBinAddr: 0x100006B2C, symSize: 0x20 }
  - { offsetInCU: 0x80CB, offset: 0x3B94D, size: 0x8, addend: 0x0, symName: __ZNSt3__16vectorIiNS_9allocatorIiEEEC2B8ue170006Ev, symObjAddr: 0x480, symBinAddr: 0x100006B4C, symSize: 0x4C }
  - { offsetInCU: 0x80FE, offset: 0x3B980, size: 0x8, addend: 0x0, symName: __ZNSt3__117__compressed_pairIPiNS_9allocatorIiEEEC1B8ue170006IDnNS_18__default_init_tagEEEOT_OT0_, symObjAddr: 0x4CC, symBinAddr: 0x100006B98, symSize: 0x3C }
  - { offsetInCU: 0x8155, offset: 0x3B9D7, size: 0x8, addend: 0x0, symName: __ZNSt3__117__compressed_pairIPiNS_9allocatorIiEEEC2B8ue170006IDnNS_18__default_init_tagEEEOT_OT0_, symObjAddr: 0x514, symBinAddr: 0x100006BD4, symSize: 0x40 }
  - { offsetInCU: 0x81AC, offset: 0x3BA2E, size: 0x8, addend: 0x0, symName: __ZNSt3__122__compressed_pair_elemIPiLi0ELb0EEC2B8ue170006IDnvEEOT_, symObjAddr: 0x554, symBinAddr: 0x100006C14, symSize: 0x1C }
  - { offsetInCU: 0x81ED, offset: 0x3BA6F, size: 0x8, addend: 0x0, symName: __ZNSt3__122__compressed_pair_elemINS_9allocatorIiEELi1ELb1EEC2B8ue170006ENS_18__default_init_tagE, symObjAddr: 0x570, symBinAddr: 0x100006C30, symSize: 0x2C }
  - { offsetInCU: 0x8221, offset: 0x3BAA3, size: 0x8, addend: 0x0, symName: __ZNSt3__19allocatorIiEC2B8ue170006Ev, symObjAddr: 0x59C, symBinAddr: 0x100006C5C, symSize: 0x2C }
  - { offsetInCU: 0x824A, offset: 0x3BACC, size: 0x8, addend: 0x0, symName: __ZNSt3__116__non_trivial_ifILb1ENS_9allocatorIiEEEC2B8ue170006Ev, symObjAddr: 0x5C8, symBinAddr: 0x100006C88, symSize: 0x14 }
  - { offsetInCU: 0x8273, offset: 0x3BAF5, size: 0x8, addend: 0x0, symName: __ZNSt3__16vectorIiNS_9allocatorIiEEED2B8ue170006Ev, symObjAddr: 0x5DC, symBinAddr: 0x100006C9C, symSize: 0x44 }
  - { offsetInCU: 0x829C, offset: 0x3BB1E, size: 0x8, addend: 0x0, symName: __ZNSt3__16vectorIiNS_9allocatorIiEEE16__destroy_vectorC1B8ue170006ERS3_, symObjAddr: 0x620, symBinAddr: 0x100006CE0, symSize: 0x34 }
  - { offsetInCU: 0x82D4, offset: 0x3BB56, size: 0x8, addend: 0x0, symName: __ZNSt3__16vectorIiNS_9allocatorIiEEE16__destroy_vectorclB8ue170006Ev, symObjAddr: 0x654, symBinAddr: 0x100006D14, symSize: 0x90 }
  - { offsetInCU: 0x82F9, offset: 0x3BB7B, size: 0x8, addend: 0x0, symName: __ZNSt3__16vectorIiNS_9allocatorIiEEE16__destroy_vectorC2B8ue170006ERS3_, symObjAddr: 0x6E4, symBinAddr: 0x100006DA4, symSize: 0x20 }
  - { offsetInCU: 0x8331, offset: 0x3BBB3, size: 0x8, addend: 0x0, symName: __ZNSt3__16vectorIiNS_9allocatorIiEEE7__clearB8ue170006Ev, symObjAddr: 0x704, symBinAddr: 0x100006DC4, symSize: 0x28 }
  - { offsetInCU: 0x8356, offset: 0x3BBD8, size: 0x8, addend: 0x0, symName: __ZNKSt3__16vectorIiNS_9allocatorIiEEE17__annotate_deleteB8ue170006Ev, symObjAddr: 0x72C, symBinAddr: 0x100006DEC, symSize: 0xB8 }
  - { offsetInCU: 0x837B, offset: 0x3BBFD, size: 0x8, addend: 0x0, symName: __ZNSt3__116allocator_traitsINS_9allocatorIiEEE10deallocateB8ue170006ERS2_Pim, symObjAddr: 0x7E4, symBinAddr: 0x100006EA4, symSize: 0x34 }
  - { offsetInCU: 0x83BD, offset: 0x3BC3F, size: 0x8, addend: 0x0, symName: __ZNSt3__16vectorIiNS_9allocatorIiEEE7__allocB8ue170006Ev, symObjAddr: 0x818, symBinAddr: 0x100006ED8, symSize: 0x28 }
  - { offsetInCU: 0x83E2, offset: 0x3BC64, size: 0x8, addend: 0x0, symName: __ZNKSt3__16vectorIiNS_9allocatorIiEEE8capacityB8ue170006Ev, symObjAddr: 0x840, symBinAddr: 0x100006F00, symSize: 0x40 }
  - { offsetInCU: 0x8407, offset: 0x3BC89, size: 0x8, addend: 0x0, symName: __ZNSt3__16vectorIiNS_9allocatorIiEEE22__base_destruct_at_endB8ue170006EPi, symObjAddr: 0x880, symBinAddr: 0x100006F40, symSize: 0x8C }
  - { offsetInCU: 0x844A, offset: 0x3BCCC, size: 0x8, addend: 0x0, symName: __ZNSt3__116allocator_traitsINS_9allocatorIiEEE7destroyB8ue170006IivEEvRS2_PT_, symObjAddr: 0x90C, symBinAddr: 0x100006FCC, symSize: 0x2C }
  - { offsetInCU: 0x8487, offset: 0x3BD09, size: 0x8, addend: 0x0, symName: __ZNSt3__19allocatorIiE7destroyB8ue170006EPi, symObjAddr: 0x94C, symBinAddr: 0x10000700C, symSize: 0x14 }
  - { offsetInCU: 0x84BA, offset: 0x3BD3C, size: 0x8, addend: 0x0, symName: __ZNKSt3__16vectorIiNS_9allocatorIiEEE31__annotate_contiguous_containerB8ue170006EPKvS5_S5_S5_, symObjAddr: 0x960, symBinAddr: 0x100007020, symSize: 0x20 }
  - { offsetInCU: 0x850B, offset: 0x3BD8D, size: 0x8, addend: 0x0, symName: __ZNKSt3__16vectorIiNS_9allocatorIiEEE4dataB8ue170006Ev, symObjAddr: 0x980, symBinAddr: 0x100007040, symSize: 0x28 }
  - { offsetInCU: 0x8530, offset: 0x3BDB2, size: 0x8, addend: 0x0, symName: __ZNKSt3__16vectorIiNS_9allocatorIiEEE4sizeB8ue170006Ev, symObjAddr: 0x9A8, symBinAddr: 0x100007068, symSize: 0x28 }
  - { offsetInCU: 0x8555, offset: 0x3BDD7, size: 0x8, addend: 0x0, symName: __ZNSt3__19allocatorIiE10deallocateB8ue170006EPim, symObjAddr: 0x9D0, symBinAddr: 0x100007090, symSize: 0x40 }
  - { offsetInCU: 0x8596, offset: 0x3BE18, size: 0x8, addend: 0x0, symName: __ZNSt3__117__compressed_pairIPiNS_9allocatorIiEEE6secondB8ue170006Ev, symObjAddr: 0xA8C, symBinAddr: 0x1000070D0, symSize: 0x24 }
  - { offsetInCU: 0x85BB, offset: 0x3BE3D, size: 0x8, addend: 0x0, symName: __ZNSt3__122__compressed_pair_elemINS_9allocatorIiEELi1ELb1EE5__getB8ue170006Ev, symObjAddr: 0xAB0, symBinAddr: 0x1000070F4, symSize: 0x14 }
  - { offsetInCU: 0x85E0, offset: 0x3BE62, size: 0x8, addend: 0x0, symName: __ZNKSt3__16vectorIiNS_9allocatorIiEEE9__end_capB8ue170006Ev, symObjAddr: 0xAC4, symBinAddr: 0x100007108, symSize: 0x28 }
  - { offsetInCU: 0x8605, offset: 0x3BE87, size: 0x8, addend: 0x0, symName: __ZNKSt3__117__compressed_pairIPiNS_9allocatorIiEEE5firstB8ue170006Ev, symObjAddr: 0xAEC, symBinAddr: 0x100007130, symSize: 0x24 }
  - { offsetInCU: 0x862A, offset: 0x3BEAC, size: 0x8, addend: 0x0, symName: __ZNKSt3__122__compressed_pair_elemIPiLi0ELb0EE5__getB8ue170006Ev, symObjAddr: 0xB10, symBinAddr: 0x100007154, symSize: 0x14 }
  - { offsetInCU: 0x864F, offset: 0x3BED1, size: 0x8, addend: 0x0, symName: __ZNSt3__16vectorIiNS_9allocatorIiEEE6assignIPKiLi0EEEvT_S7_, symObjAddr: 0xB24, symBinAddr: 0x100007168, symSize: 0x5C }
  - { offsetInCU: 0x86A2, offset: 0x3BF24, size: 0x8, addend: 0x0, symName: __ZNKSt16initializer_listIiE5beginB8ue170006Ev, symObjAddr: 0xB80, symBinAddr: 0x1000071C4, symSize: 0x18 }
  - { offsetInCU: 0x86C7, offset: 0x3BF49, size: 0x8, addend: 0x0, symName: __ZNKSt16initializer_listIiE3endB8ue170006Ev, symObjAddr: 0xB98, symBinAddr: 0x1000071DC, symSize: 0x20 }
  - { offsetInCU: 0x86EC, offset: 0x3BF6E, size: 0x8, addend: 0x0, symName: __ZNSt3__16vectorIiNS_9allocatorIiEEE18__assign_with_sizeB8ue170006IPKiS6_EEvT_T0_l, symObjAddr: 0xBB8, symBinAddr: 0x1000071FC, symSize: 0x164 }
  - { offsetInCU: 0x879C, offset: 0x3C01E, size: 0x8, addend: 0x0, symName: __ZNSt3__16vectorIiNS_9allocatorIiEEE18__construct_at_endIPKiS6_EEvT_T0_m, symObjAddr: 0xDBC, symBinAddr: 0x100007400, symSize: 0x8C }
  - { offsetInCU: 0x8810, offset: 0x3C092, size: 0x8, addend: 0x0, symName: __ZNSt3__16vectorIiNS_9allocatorIiEEE17__destruct_at_endB8ue170006EPi, symObjAddr: 0xE8C, symBinAddr: 0x1000074D0, symSize: 0x4C }
  - { offsetInCU: 0x8853, offset: 0x3C0D5, size: 0x8, addend: 0x0, symName: __ZNSt3__16vectorIiNS_9allocatorIiEEE13__vdeallocateEv, symObjAddr: 0xED8, symBinAddr: 0x10000751C, symSize: 0x94 }
  - { offsetInCU: 0x8879, offset: 0x3C0FB, size: 0x8, addend: 0x0, symName: __ZNSt3__16vectorIiNS_9allocatorIiEEE11__vallocateB8ue170006Em, symObjAddr: 0xF6C, symBinAddr: 0x1000075B0, symSize: 0xAC }
  - { offsetInCU: 0x88BC, offset: 0x3C13E, size: 0x8, addend: 0x0, symName: __ZNKSt3__16vectorIiNS_9allocatorIiEEE11__recommendB8ue170006Em, symObjAddr: 0x1018, symBinAddr: 0x10000765C, symSize: 0xB4 }
  - { offsetInCU: 0x8928, offset: 0x3C1AA, size: 0x8, addend: 0x0, symName: __ZNSt3__16vectorIiNS_9allocatorIiEEE21_ConstructTransactionC1B8ue170006ERS3_m, symObjAddr: 0x1140, symBinAddr: 0x100007784, symSize: 0x3C }
  - { offsetInCU: 0x896F, offset: 0x3C1F1, size: 0x8, addend: 0x0, symName: __ZNSt3__16vectorIiNS_9allocatorIiEEE21_ConstructTransactionD1B8ue170006Ev, symObjAddr: 0x11FC, symBinAddr: 0x100007840, symSize: 0x2C }
  - { offsetInCU: 0x8998, offset: 0x3C21A, size: 0x8, addend: 0x0, symName: __ZNSt3__16vectorIiNS_9allocatorIiEEE21_ConstructTransactionC2B8ue170006ERS3_m, symObjAddr: 0x1228, symBinAddr: 0x10000786C, symSize: 0x44 }
  - { offsetInCU: 0x89FD, offset: 0x3C27F, size: 0x8, addend: 0x0, symName: __ZNSt3__14pairIPKiS2_EC1B8ue170006IS2_S2_LPv0EEEOT_OT0_, symObjAddr: 0x13C0, symBinAddr: 0x100007A04, symSize: 0x3C }
  - { offsetInCU: 0x8A5A, offset: 0x3C2DC, size: 0x8, addend: 0x0, symName: __ZNSt3__14pairIPKiS2_EC2B8ue170006IS2_S2_LPv0EEEOT_OT0_, symObjAddr: 0x13FC, symBinAddr: 0x100007A40, symSize: 0x34 }
  - { offsetInCU: 0x8AB7, offset: 0x3C339, size: 0x8, addend: 0x0, symName: __ZNSt3__118__unwrap_iter_implIPKiLb1EE8__unwrapB8ue170006ES2_, symObjAddr: 0x1430, symBinAddr: 0x100007A74, symSize: 0x24 }
  - { offsetInCU: 0x8ADA, offset: 0x3C35C, size: 0x8, addend: 0x0, symName: __ZNSt3__118__unwrap_iter_implIPiLb1EE8__unwrapB8ue170006ES1_, symObjAddr: 0x1468, symBinAddr: 0x100007AAC, symSize: 0x24 }
  - { offsetInCU: 0x8AFD, offset: 0x3C37F, size: 0x8, addend: 0x0, symName: __ZNSt3__118__unwrap_iter_implIPiLb1EE8__rewrapB8ue170006ES1_S1_, symObjAddr: 0x148C, symBinAddr: 0x100007AD0, symSize: 0x50 }
  - { offsetInCU: 0x8B2E, offset: 0x3C3B0, size: 0x8, addend: 0x0, symName: __ZNSt3__16vectorIiNS_9allocatorIiEEE21_ConstructTransactionD2B8ue170006Ev, symObjAddr: 0x14DC, symBinAddr: 0x100007B20, symSize: 0x20 }
  - { offsetInCU: 0x8B7A, offset: 0x3C3FC, size: 0x8, addend: 0x0, symName: __ZNKSt3__114__copy_trivialclB8ue170006IKiiLi0EEENS_4pairIPT_PT0_EES5_S5_S7_, symObjAddr: 0x15F4, symBinAddr: 0x100007C38, symSize: 0x48 }
  - { offsetInCU: 0x8BEB, offset: 0x3C46D, size: 0x8, addend: 0x0, symName: __ZNSt3__14pairIPKiPiEC1B8ue170006IRS2_S3_LPv0EEEOT_OT0_, symObjAddr: 0x17BC, symBinAddr: 0x100007E00, symSize: 0x3C }
  - { offsetInCU: 0x8C48, offset: 0x3C4CA, size: 0x8, addend: 0x0, symName: __ZNSt3__14pairIPKiPiEC2B8ue170006IRS2_S3_LPv0EEEOT_OT0_, symObjAddr: 0x17F8, symBinAddr: 0x100007E3C, symSize: 0x34 }
  - { offsetInCU: 0x8CA5, offset: 0x3C527, size: 0x8, addend: 0x0, symName: __ZNSt3__14pairIPKiPiEC1B8ue170006IS2_S3_LPv0EEEOT_OT0_, symObjAddr: 0x182C, symBinAddr: 0x100007E70, symSize: 0x3C }
  - { offsetInCU: 0x8D02, offset: 0x3C584, size: 0x8, addend: 0x0, symName: __ZNSt3__14pairIPKiPiEC2B8ue170006IS2_S3_LPv0EEEOT_OT0_, symObjAddr: 0x1868, symBinAddr: 0x100007EAC, symSize: 0x34 }
  - { offsetInCU: 0x8D5F, offset: 0x3C5E1, size: 0x8, addend: 0x0, symName: __ZNSt3__118__unwrap_iter_implIPKiLb1EE8__rewrapB8ue170006ES2_S2_, symObjAddr: 0x18D8, symBinAddr: 0x100007F1C, symSize: 0x50 }
  - { offsetInCU: 0x8D90, offset: 0x3C612, size: 0x8, addend: 0x0, symName: __ZNKSt3__16vectorIiNS_9allocatorIiEEE17__annotate_shrinkB8ue170006Em, symObjAddr: 0x1928, symBinAddr: 0x100007F6C, symSize: 0xB4 }
  - { offsetInCU: 0x8DC4, offset: 0x3C646, size: 0x8, addend: 0x0, symName: __ZNSt3__16vectorIiNS_9allocatorIiEEE5clearB8ue170006Ev, symObjAddr: 0x19DC, symBinAddr: 0x100008020, symSize: 0x44 }
  - { offsetInCU: 0x8DF8, offset: 0x3C67A, size: 0x8, addend: 0x0, symName: __ZNSt3__16vectorIiNS_9allocatorIiEEE9__end_capB8ue170006Ev, symObjAddr: 0x1A20, symBinAddr: 0x100008064, symSize: 0x28 }
  - { offsetInCU: 0x8E1D, offset: 0x3C69F, size: 0x8, addend: 0x0, symName: __ZNSt3__117__compressed_pairIPiNS_9allocatorIiEEE5firstB8ue170006Ev, symObjAddr: 0x1A48, symBinAddr: 0x10000808C, symSize: 0x24 }
  - { offsetInCU: 0x8E42, offset: 0x3C6C4, size: 0x8, addend: 0x0, symName: __ZNSt3__122__compressed_pair_elemIPiLi0ELb0EE5__getB8ue170006Ev, symObjAddr: 0x1A6C, symBinAddr: 0x1000080B0, symSize: 0x14 }
  - { offsetInCU: 0x8E67, offset: 0x3C6E9, size: 0x8, addend: 0x0, symName: __ZNKSt3__16vectorIiNS_9allocatorIiEEE8max_sizeEv, symObjAddr: 0x1A80, symBinAddr: 0x1000080C4, symSize: 0x60 }
  - { offsetInCU: 0x8E8D, offset: 0x3C70F, size: 0x8, addend: 0x0, symName: __ZNKSt3__16vectorIiNS_9allocatorIiEEE20__throw_length_errorB8ue170006Ev, symObjAddr: 0x1AE0, symBinAddr: 0x100008124, symSize: 0x1C }
  - { offsetInCU: 0x8EB2, offset: 0x3C734, size: 0x8, addend: 0x0, symName: __ZNKSt3__16vectorIiNS_9allocatorIiEEE14__annotate_newB8ue170006Em, symObjAddr: 0x1B3C, symBinAddr: 0x100008180, symSize: 0xAC }
  - { offsetInCU: 0x8EF0, offset: 0x3C772, size: 0x8, addend: 0x0, symName: __ZNSt3__116allocator_traitsINS_9allocatorIiEEE8max_sizeB8ue170006IS2_vEEmRKS2_, symObjAddr: 0x1C14, symBinAddr: 0x10000822C, symSize: 0x24 }
  - { offsetInCU: 0x8F1E, offset: 0x3C7A0, size: 0x8, addend: 0x0, symName: __ZNKSt3__16vectorIiNS_9allocatorIiEEE7__allocB8ue170006Ev, symObjAddr: 0x1C38, symBinAddr: 0x100008250, symSize: 0x28 }
  - { offsetInCU: 0x8F43, offset: 0x3C7C5, size: 0x8, addend: 0x0, symName: __ZNKSt3__19allocatorIiE8max_sizeB8ue170006Ev, symObjAddr: 0x1CFC, symBinAddr: 0x100008278, symSize: 0x14 }
  - { offsetInCU: 0x8F68, offset: 0x3C7EA, size: 0x8, addend: 0x0, symName: __ZNKSt3__117__compressed_pairIPiNS_9allocatorIiEEE6secondB8ue170006Ev, symObjAddr: 0x1D10, symBinAddr: 0x10000828C, symSize: 0x24 }
  - { offsetInCU: 0x8F8D, offset: 0x3C80F, size: 0x8, addend: 0x0, symName: __ZNKSt3__122__compressed_pair_elemINS_9allocatorIiEELi1ELb1EE5__getB8ue170006Ev, symObjAddr: 0x1D34, symBinAddr: 0x1000082B0, symSize: 0x14 }
  - { offsetInCU: 0x8FB2, offset: 0x3C834, size: 0x8, addend: 0x0, symName: __ZNSt3__19allocatorIiE8allocateB8ue170006Em, symObjAddr: 0x1E34, symBinAddr: 0x1000082C4, symSize: 0x58 }
  - { offsetInCU: 0x8FE5, offset: 0x3C867, size: 0x8, addend: 0x0, symName: __ZNSt3__16vectorIiNS_9allocatorIiEEE19__copy_assign_allocB8ue170006ERKS3_, symObjAddr: 0x1FB4, symBinAddr: 0x100008344, symSize: 0x2C }
  - { offsetInCU: 0x9019, offset: 0x3C89B, size: 0x8, addend: 0x0, symName: __ZNSt3__16vectorIiNS_9allocatorIiEEE6assignIPiLi0EEEvT_S6_, symObjAddr: 0x1FE0, symBinAddr: 0x100008370, symSize: 0x5C }
  - { offsetInCU: 0x906C, offset: 0x3C8EE, size: 0x8, addend: 0x0, symName: __ZNSt3__16vectorIiNS_9allocatorIiEEE19__copy_assign_allocB8ue170006ERKS3_NS_17integral_constantIbLb0EEE, symObjAddr: 0x203C, symBinAddr: 0x1000083CC, symSize: 0x14 }
  - { offsetInCU: 0x90A7, offset: 0x3C929, size: 0x8, addend: 0x0, symName: __ZNSt3__16vectorIiNS_9allocatorIiEEE18__assign_with_sizeB8ue170006IPiS5_EEvT_T0_l, symObjAddr: 0x2050, symBinAddr: 0x1000083E0, symSize: 0x164 }
  - { offsetInCU: 0x9157, offset: 0x3C9D9, size: 0x8, addend: 0x0, symName: __ZNSt3__16vectorIiNS_9allocatorIiEEE18__construct_at_endIPiS5_EEvT_T0_m, symObjAddr: 0x2254, symBinAddr: 0x1000085E4, symSize: 0x8C }
  - { offsetInCU: 0x91E4, offset: 0x3CA66, size: 0x8, addend: 0x0, symName: __ZNSt3__14pairIPiS1_EC1B8ue170006IS1_S1_LPv0EEEOT_OT0_, symObjAddr: 0x24D4, symBinAddr: 0x100008864, symSize: 0x3C }
  - { offsetInCU: 0x9241, offset: 0x3CAC3, size: 0x8, addend: 0x0, symName: __ZNSt3__14pairIPiS1_EC2B8ue170006IS1_S1_LPv0EEEOT_OT0_, symObjAddr: 0x2510, symBinAddr: 0x1000088A0, symSize: 0x34 }
  - { offsetInCU: 0x929E, offset: 0x3CB20, size: 0x8, addend: 0x0, symName: __ZNKSt3__114__copy_trivialclB8ue170006IiiLi0EEENS_4pairIPT_PT0_EES4_S4_S6_, symObjAddr: 0x263C, symBinAddr: 0x1000089CC, symSize: 0x48 }
  - { offsetInCU: 0x9305, offset: 0x3CB87, size: 0x8, addend: 0x0, symName: __ZNSt3__14pairIPiS1_EC1B8ue170006IRS1_S1_LPv0EEEOT_OT0_, symObjAddr: 0x27CC, symBinAddr: 0x100008B5C, symSize: 0x3C }
  - { offsetInCU: 0x9362, offset: 0x3CBE4, size: 0x8, addend: 0x0, symName: __ZNSt3__14pairIPiS1_EC2B8ue170006IRS1_S1_LPv0EEEOT_OT0_, symObjAddr: 0x2808, symBinAddr: 0x100008B98, symSize: 0x34 }
  - { offsetInCU: 0x470B, offset: 0x413A1, size: 0x8, addend: 0x0, symName: __ZNSt3__17advanceB8ue170006IPP7ToppingllvEEvRT_T0_, symObjAddr: 0x30B4, symBinAddr: 0x10000A590, symSize: 0x38 }
  - { offsetInCU: 0x642A, offset: 0x430C0, size: 0x8, addend: 0x0, symName: __ZNSt3__122__make_exception_guardB8ue170006INS_6vectorIiNS_9allocatorIiEEE16__destroy_vectorEEENS_28__exception_guard_exceptionsIT_EES7_, symObjAddr: 0x130C, symBinAddr: 0x100009B64, symSize: 0x40 }
  - { offsetInCU: 0x6BA8, offset: 0x4383E, size: 0x8, addend: 0x0, symName: __ZNSt3__18distanceB8ue170006IPP7ToppingEENS_15iterator_traitsIT_E15difference_typeES5_S5_, symObjAddr: 0x2C3C, symBinAddr: 0x10000A2E0, symSize: 0x2C }
  - { offsetInCU: 0x6BEB, offset: 0x43881, size: 0x8, addend: 0x0, symName: __ZNSt3__14nextB8ue170006IPP7ToppingEENS_9enable_ifIXsr29__has_input_iterator_categoryIT_EE5valueES5_E4typeES5_NS_15iterator_traitsIS5_E15difference_typeE, symObjAddr: 0x2CD0, symBinAddr: 0x10000A30C, symSize: 0x34 }
  - { offsetInCU: 0x6C2E, offset: 0x438C4, size: 0x8, addend: 0x0, symName: __ZNSt3__14copyB8ue170006IPP7ToppingS3_EET0_T_S5_S4_, symObjAddr: 0x2D04, symBinAddr: 0x10000A340, symSize: 0x40 }
  - { offsetInCU: 0x6C88, offset: 0x4391E, size: 0x8, addend: 0x0, symName: __ZNSt3__16__copyB8ue170006INS_17_ClassicAlgPolicyEPP7ToppingS4_S4_EENS_4pairIT0_T2_EES6_T1_S7_, symObjAddr: 0x2DD0, symBinAddr: 0x10000A40C, symSize: 0x44 }
  - { offsetInCU: 0x6CF4, offset: 0x4398A, size: 0x8, addend: 0x0, symName: __ZNSt3__19__advanceB8ue170006IPP7ToppingEEvRT_NS_15iterator_traitsIS4_E15difference_typeENS_26random_access_iterator_tagE, symObjAddr: 0x3100, symBinAddr: 0x10000A5C8, symSize: 0x28 }
  - { offsetInCU: 0x6D3F, offset: 0x439D5, size: 0x8, addend: 0x0, symName: __ZNSt3__130__uninitialized_allocator_copyB8ue170006INS_9allocatorIP7ToppingEEPS3_S5_S5_EET2_RT_T0_T1_S6_, symObjAddr: 0x3164, symBinAddr: 0x10000A5F0, symSize: 0x80 }
  - { offsetInCU: 0x6DDC, offset: 0x43A72, size: 0x8, addend: 0x0, symName: __ZNSt3__135__uninitialized_allocator_copy_implB8ue170006INS_9allocatorIP7ToppingEES3_S3_S3_LPv0EEEPT2_RT_PT0_SB_S7_, symObjAddr: 0x32DC, symBinAddr: 0x10000A670, symSize: 0x38 }
  - { offsetInCU: 0x6F60, offset: 0x43BF6, size: 0x8, addend: 0x0, symName: __ZNSt3__123__dispatch_copy_or_moveB8ue170006INS_17_ClassicAlgPolicyENS_11__copy_loopIS1_EENS_14__copy_trivialEPP7ToppingS7_S7_EENS_4pairIT2_T4_EES9_T3_SA_, symObjAddr: 0x34FC, symBinAddr: 0x10000A6A8, symSize: 0x44 }
  - { offsetInCU: 0x6FDE, offset: 0x43C74, size: 0x8, addend: 0x0, symName: __ZNSt3__121__unwrap_and_dispatchB8ue170006INS_10__overloadINS_11__copy_loopINS_17_ClassicAlgPolicyEEENS_14__copy_trivialEEEPP7ToppingS9_S9_Li0EEENS_4pairIT0_T2_EESB_T1_SC_, symObjAddr: 0x3540, symBinAddr: 0x10000A6EC, symSize: 0xB4 }
  - { offsetInCU: 0x706C, offset: 0x43D02, size: 0x8, addend: 0x0, symName: __ZNSt3__110__distanceB8ue170006IPP7ToppingEENS_15iterator_traitsIT_E15difference_typeES5_S5_NS_26random_access_iterator_tagE, symObjAddr: 0x3E8C, symBinAddr: 0x10000A7E8, symSize: 0x28 }
  - { offsetInCU: 0x950C, offset: 0x461A2, size: 0x8, addend: 0x0, symName: _main, symObjAddr: 0x0, symBinAddr: 0x100008BF4, symSize: 0x2CC }
  - { offsetInCU: 0x9562, offset: 0x461F8, size: 0x8, addend: 0x0, symName: __ZNSt3__16vectorIiNS_9allocatorIiEEEC1B8ue170006ESt16initializer_listIiE, symObjAddr: 0x2CC, symBinAddr: 0x100008EC0, symSize: 0x3C }
  - { offsetInCU: 0x9A6F, offset: 0x46705, size: 0x8, addend: 0x0, symName: __ZN5State8saveGameER11PlayerPizzaR13CustomerPizzaNSt3__112basic_stringIcNS4_11char_traitsIcEENS4_9allocatorIcEEEE, symObjAddr: 0x334, symBinAddr: 0x100008EFC, symSize: 0x2C0 }
  - { offsetInCU: 0x9B2F, offset: 0x467C5, size: 0x8, addend: 0x0, symName: __ZN5State8loadGameER11PlayerPizzaR13CustomerPizzaNSt3__112basic_stringIcNS4_11char_traitsIcEENS4_9allocatorIcEEEE, symObjAddr: 0x628, symBinAddr: 0x1000091BC, symSize: 0x338 }
  - { offsetInCU: 0x9BEA, offset: 0x46880, size: 0x8, addend: 0x0, symName: __ZN13CustomerPizzaD1Ev, symObjAddr: 0xA2C, symBinAddr: 0x1000094F4, symSize: 0x2C }
  - { offsetInCU: 0x9C15, offset: 0x468AB, size: 0x8, addend: 0x0, symName: __ZN11PlayerPizzaD1Ev, symObjAddr: 0xA58, symBinAddr: 0x100009520, symSize: 0x2C }
  - { offsetInCU: 0x9CD8, offset: 0x4696E, size: 0x8, addend: 0x0, symName: __ZNSt3__114basic_ofstreamIcNS_11char_traitsIcEEEC1ERKNS_12basic_stringIcS2_NS_9allocatorIcEEEEj, symObjAddr: 0xA84, symBinAddr: 0x10000954C, symSize: 0x16C }
  - { offsetInCU: 0x9D21, offset: 0x469B7, size: 0x8, addend: 0x0, symName: __ZNKSt3__19basic_iosIcNS_11char_traitsIcEEEntB8ue170006Ev, symObjAddr: 0xBF0, symBinAddr: 0x1000096B8, symSize: 0x28 }
  - { offsetInCU: 0x9D46, offset: 0x469DC, size: 0x8, addend: 0x0, symName: __ZNSt3__16vectorIiNS_9allocatorIiEEEC1ERKS3_, symObjAddr: 0xC18, symBinAddr: 0x1000096E0, symSize: 0x34 }
  - { offsetInCU: 0x9D80, offset: 0x46A16, size: 0x8, addend: 0x0, symName: __ZNSt3__114basic_ofstreamIcNS_11char_traitsIcEEE5closeEv, symObjAddr: 0xC4C, symBinAddr: 0x100009714, symSize: 0x58 }
  - { offsetInCU: 0x9DAB, offset: 0x46A41, size: 0x8, addend: 0x0, symName: __ZNSt3__114basic_ofstreamIcNS_11char_traitsIcEEED1Ev, symObjAddr: 0xCA4, symBinAddr: 0x10000976C, symSize: 0x40 }
  - { offsetInCU: 0x9DD7, offset: 0x46A6D, size: 0x8, addend: 0x0, symName: __ZNSt3__19basic_iosIcNS_11char_traitsIcEEEC2B8ue170006Ev, symObjAddr: 0xCE4, symBinAddr: 0x1000097AC, symSize: 0x44 }
  - { offsetInCU: 0x9E00, offset: 0x46A96, size: 0x8, addend: 0x0, symName: __ZNSt3__113basic_ostreamIcNS_11char_traitsIcEEEC2B8ue170006EPNS_15basic_streambufIcS2_EE, symObjAddr: 0xD28, symBinAddr: 0x1000097F0, symSize: 0x60 }
  - { offsetInCU: 0x9E43, offset: 0x46AD9, size: 0x8, addend: 0x0, symName: __ZNSt3__113basic_filebufIcNS_11char_traitsIcEEE4openERKNS_12basic_stringIcS2_NS_9allocatorIcEEEEj, symObjAddr: 0xD88, symBinAddr: 0x100009850, symSize: 0x44 }
  - { offsetInCU: 0x9E85, offset: 0x46B1B, size: 0x8, addend: 0x0, symName: __ZNSt3__18ios_baseC2B8ue170006Ev, symObjAddr: 0xDF8, symBinAddr: 0x100009894, symSize: 0x24 }
  - { offsetInCU: 0x9EAE, offset: 0x46B44, size: 0x8, addend: 0x0, symName: __ZNSt3__19basic_iosIcNS_11char_traitsIcEEE4initB8ue170006EPNS_15basic_streambufIcS2_EE, symObjAddr: 0xE1C, symBinAddr: 0x1000098B8, symSize: 0x44 }
  - { offsetInCU: 0x9EE3, offset: 0x46B79, size: 0x8, addend: 0x0, symName: __ZNKSt3__112basic_stringIcNS_11char_traitsIcEENS_9allocatorIcEEE5c_strB8ue170006Ev, symObjAddr: 0xE68, symBinAddr: 0x1000098FC, symSize: 0x24 }
  - { offsetInCU: 0x9F08, offset: 0x46B9E, size: 0x8, addend: 0x0, symName: __ZNKSt3__19basic_iosIcNS_11char_traitsIcEEE4failB8ue170006Ev, symObjAddr: 0x1024, symBinAddr: 0x100009920, symSize: 0x28 }
  - { offsetInCU: 0x9F2D, offset: 0x46BC3, size: 0x8, addend: 0x0, symName: __ZNKSt3__18ios_base4failB8ue170006Ev, symObjAddr: 0x104C, symBinAddr: 0x100009948, symSize: 0x28 }
  - { offsetInCU: 0x9F54, offset: 0x46BEA, size: 0x8, addend: 0x0, symName: __ZNSt3__16vectorIiNS_9allocatorIiEEEC2ERKS3_, symObjAddr: 0x1074, symBinAddr: 0x100009970, symSize: 0x94 }
  - { offsetInCU: 0x9F98, offset: 0x46C2E, size: 0x8, addend: 0x0, symName: __ZNSt3__116allocator_traitsINS_9allocatorIiEEE37select_on_container_copy_constructionB8ue170006IS2_vvEES2_RKS2_, symObjAddr: 0x1108, symBinAddr: 0x100009A04, symSize: 0x10 }
  - { offsetInCU: 0x9FD1, offset: 0x46C67, size: 0x8, addend: 0x0, symName: __ZNSt3__117__compressed_pairIPiNS_9allocatorIiEEEC1B8ue170006IDnS3_EEOT_OT0_, symObjAddr: 0x1140, symBinAddr: 0x100009A14, symSize: 0x3C }
  - { offsetInCU: 0xA028, offset: 0x46CBE, size: 0x8, addend: 0x0, symName: __ZNSt3__16vectorIiNS_9allocatorIiEEE16__init_with_sizeB8ue170006IPiS5_EEvT_T0_m, symObjAddr: 0x117C, symBinAddr: 0x100009A50, symSize: 0xB8 }
  - { offsetInCU: 0xA09B, offset: 0x46D31, size: 0x8, addend: 0x0, symName: __ZNSt3__117__compressed_pairIPiNS_9allocatorIiEEEC2B8ue170006IDnS3_EEOT_OT0_, symObjAddr: 0x1294, symBinAddr: 0x100009B08, symSize: 0x44 }
  - { offsetInCU: 0xA0F2, offset: 0x46D88, size: 0x8, addend: 0x0, symName: __ZNSt3__122__compressed_pair_elemINS_9allocatorIiEELi1ELb1EEC2B8ue170006IS2_vEEOT_, symObjAddr: 0x12F4, symBinAddr: 0x100009B4C, symSize: 0x18 }
  - { offsetInCU: 0xA133, offset: 0x46DC9, size: 0x8, addend: 0x0, symName: __ZNSt3__128__exception_guard_exceptionsINS_6vectorIiNS_9allocatorIiEEE16__destroy_vectorEE10__completeB8ue170006Ev, symObjAddr: 0x14B8, symBinAddr: 0x100009BA4, symSize: 0x1C }
  - { offsetInCU: 0xA158, offset: 0x46DEE, size: 0x8, addend: 0x0, symName: __ZNSt3__128__exception_guard_exceptionsINS_6vectorIiNS_9allocatorIiEEE16__destroy_vectorEED1B8ue170006Ev, symObjAddr: 0x14D4, symBinAddr: 0x100009BC0, symSize: 0x2C }
  - { offsetInCU: 0xA181, offset: 0x46E17, size: 0x8, addend: 0x0, symName: __ZNSt3__128__exception_guard_exceptionsINS_6vectorIiNS_9allocatorIiEEE16__destroy_vectorEEC1B8ue170006ES5_, symObjAddr: 0x1500, symBinAddr: 0x100009BEC, symSize: 0x34 }
  - { offsetInCU: 0xA1B8, offset: 0x46E4E, size: 0x8, addend: 0x0, symName: __ZNSt3__128__exception_guard_exceptionsINS_6vectorIiNS_9allocatorIiEEE16__destroy_vectorEEC2B8ue170006ES5_, symObjAddr: 0x1534, symBinAddr: 0x100009C20, symSize: 0x24 }
  - { offsetInCU: 0xA212, offset: 0x46EA8, size: 0x8, addend: 0x0, symName: __ZNSt3__128__exception_guard_exceptionsINS_6vectorIiNS_9allocatorIiEEE16__destroy_vectorEED2B8ue170006Ev, symObjAddr: 0x2248, symBinAddr: 0x100009C44, symSize: 0x50 }
  - { offsetInCU: 0xA23B, offset: 0x46ED1, size: 0x8, addend: 0x0, symName: __ZNSt3__114basic_ofstreamIcNS_11char_traitsIcEEED2Ev, symObjAddr: 0x25C4, symBinAddr: 0x100009C94, symSize: 0x64 }
  - { offsetInCU: 0xA273, offset: 0x46F09, size: 0x8, addend: 0x0, symName: __ZTv0_n24_NSt3__114basic_ofstreamIcNS_11char_traitsIcEEED1Ev, symObjAddr: 0x2628, symBinAddr: 0x100009CF8, symSize: 0x28 }
  - { offsetInCU: 0xA312, offset: 0x46FA8, size: 0x8, addend: 0x0, symName: __ZNSt3__114basic_ifstreamIcNS_11char_traitsIcEEEC1ERKNS_12basic_stringIcS2_NS_9allocatorIcEEEEj, symObjAddr: 0x2650, symBinAddr: 0x100009D20, symSize: 0x16C }
  - { offsetInCU: 0xA360, offset: 0x46FF6, size: 0x8, addend: 0x0, symName: __ZN11PlayerPizzaaSEOS_, symObjAddr: 0x27BC, symBinAddr: 0x100009E8C, symSize: 0x48 }
  - { offsetInCU: 0xA395, offset: 0x4702B, size: 0x8, addend: 0x0, symName: __ZN13CustomerPizzaaSEOS_, symObjAddr: 0x2830, symBinAddr: 0x100009ED4, symSize: 0x60 }
  - { offsetInCU: 0xA3C5, offset: 0x4705B, size: 0x8, addend: 0x0, symName: __ZNSt3__114basic_ifstreamIcNS_11char_traitsIcEEE5closeEv, symObjAddr: 0x2890, symBinAddr: 0x100009F34, symSize: 0x58 }
  - { offsetInCU: 0xA3F0, offset: 0x47086, size: 0x8, addend: 0x0, symName: __ZNSt3__114basic_ifstreamIcNS_11char_traitsIcEEED1Ev, symObjAddr: 0x28E8, symBinAddr: 0x100009F8C, symSize: 0x40 }
  - { offsetInCU: 0xA41C, offset: 0x470B2, size: 0x8, addend: 0x0, symName: __ZNSt3__113basic_istreamIcNS_11char_traitsIcEEEC2B8ue170006EPNS_15basic_streambufIcS2_EE, symObjAddr: 0x2928, symBinAddr: 0x100009FCC, symSize: 0x64 }
  - { offsetInCU: 0xA46E, offset: 0x47104, size: 0x8, addend: 0x0, symName: __ZN5PizzaaSERKS_, symObjAddr: 0x298C, symBinAddr: 0x10000A030, symSize: 0x48 }
  - { offsetInCU: 0xA49E, offset: 0x47134, size: 0x8, addend: 0x0, symName: __ZNSt3__16vectorIP7ToppingNS_9allocatorIS2_EEEaSB8ue170006ERKS5_, symObjAddr: 0x29D4, symBinAddr: 0x10000A078, symSize: 0x68 }
  - { offsetInCU: 0xA4D3, offset: 0x47169, size: 0x8, addend: 0x0, symName: __ZNSt3__16vectorIP7ToppingNS_9allocatorIS2_EEE19__copy_assign_allocB8ue170006ERKS5_, symObjAddr: 0x2A3C, symBinAddr: 0x10000A0E0, symSize: 0x2C }
  - { offsetInCU: 0xA507, offset: 0x4719D, size: 0x8, addend: 0x0, symName: __ZNSt3__16vectorIP7ToppingNS_9allocatorIS2_EEE6assignIPS2_Li0EEEvT_S8_, symObjAddr: 0x2A68, symBinAddr: 0x10000A10C, symSize: 0x5C }
  - { offsetInCU: 0xA55A, offset: 0x471F0, size: 0x8, addend: 0x0, symName: __ZNSt3__16vectorIP7ToppingNS_9allocatorIS2_EEE19__copy_assign_allocB8ue170006ERKS5_NS_17integral_constantIbLb0EEE, symObjAddr: 0x2AC4, symBinAddr: 0x10000A168, symSize: 0x14 }
  - { offsetInCU: 0xA595, offset: 0x4722B, size: 0x8, addend: 0x0, symName: __ZNSt3__16vectorIP7ToppingNS_9allocatorIS2_EEE18__assign_with_sizeB8ue170006IPS2_S7_EEvT_T0_l, symObjAddr: 0x2AD8, symBinAddr: 0x10000A17C, symSize: 0x164 }
  - { offsetInCU: 0xA645, offset: 0x472DB, size: 0x8, addend: 0x0, symName: __ZNSt3__16vectorIP7ToppingNS_9allocatorIS2_EEE18__construct_at_endIPS2_S7_EEvT_T0_m, symObjAddr: 0x2D44, symBinAddr: 0x10000A380, symSize: 0x8C }
  - { offsetInCU: 0xA6B9, offset: 0x4734F, size: 0x8, addend: 0x0, symName: __ZNSt3__16vectorIP7ToppingNS_9allocatorIS2_EEE13__vdeallocateEv, symObjAddr: 0x2E60, symBinAddr: 0x10000A450, symSize: 0x94 }
  - { offsetInCU: 0xA6DF, offset: 0x47375, size: 0x8, addend: 0x0, symName: __ZNSt3__16vectorIP7ToppingNS_9allocatorIS2_EEE11__vallocateB8ue170006Em, symObjAddr: 0x2EF4, symBinAddr: 0x10000A4E4, symSize: 0xAC }
  - { offsetInCU: 0xA759, offset: 0x473EF, size: 0x8, addend: 0x0, symName: __ZNKSt3__114__copy_trivialclB8ue170006IP7ToppingS3_Li0EEENS_4pairIPT_PT0_EES6_S6_S8_, symObjAddr: 0x35F4, symBinAddr: 0x10000A7A0, symSize: 0x48 }
  - { offsetInCU: 0xA7CF, offset: 0x47465, size: 0x8, addend: 0x0, symName: __ZNSt3__16vectorIiNS_9allocatorIiEEEaSB8ue170006EOS3_, symObjAddr: 0x3FE8, symBinAddr: 0x10000A810, symSize: 0x34 }
  - { offsetInCU: 0xA804, offset: 0x4749A, size: 0x8, addend: 0x0, symName: __ZNSt3__16vectorIiNS_9allocatorIiEEE13__move_assignERS3_NS_17integral_constantIbLb1EEE, symObjAddr: 0x401C, symBinAddr: 0x10000A844, symSize: 0x94 }
  - { offsetInCU: 0xA844, offset: 0x474DA, size: 0x8, addend: 0x0, symName: __ZNSt3__16vectorIiNS_9allocatorIiEEE19__move_assign_allocB8ue170006ERS3_, symObjAddr: 0x4144, symBinAddr: 0x10000A8D8, symSize: 0x2C }
  - { offsetInCU: 0xA878, offset: 0x4750E, size: 0x8, addend: 0x0, symName: __ZNSt3__16vectorIiNS_9allocatorIiEEE19__move_assign_allocB8ue170006ERS3_NS_17integral_constantIbLb1EEE, symObjAddr: 0x4268, symBinAddr: 0x10000A904, symSize: 0x38 }
  - { offsetInCU: 0xA8B7, offset: 0x4754D, size: 0x8, addend: 0x0, symName: __ZNSt3__114basic_ifstreamIcNS_11char_traitsIcEEED2Ev, symObjAddr: 0x42A0, symBinAddr: 0x10000A93C, symSize: 0x64 }
  - { offsetInCU: 0xA8EF, offset: 0x47585, size: 0x8, addend: 0x0, symName: __ZTv0_n24_NSt3__114basic_ifstreamIcNS_11char_traitsIcEEED1Ev, symObjAddr: 0x4304, symBinAddr: 0x10000A9A0, symSize: 0x28 }
  - { offsetInCU: 0xA906, offset: 0x4759C, size: 0x8, addend: 0x0, symName: __ZN13CustomerPizzaD2Ev, symObjAddr: 0x432C, symBinAddr: 0x10000A9C8, symSize: 0x48 }
  - { offsetInCU: 0xA931, offset: 0x475C7, size: 0x8, addend: 0x0, symName: __ZN11PlayerPizzaD2Ev, symObjAddr: 0x4374, symBinAddr: 0x10000AA10, symSize: 0x2C }
  - { offsetInCU: 0xA97A, offset: 0x47610, size: 0x8, addend: 0x0, symName: __ZNSt3__16vectorIiNS_9allocatorIiEEEC2B8ue170006ESt16initializer_listIiE, symObjAddr: 0x4CF4, symBinAddr: 0x10000AA3C, symSize: 0x120 }
  - { offsetInCU: 0xA9C9, offset: 0x4765F, size: 0x8, addend: 0x0, symName: __ZNKSt16initializer_listIiE4sizeB8ue170006Ev, symObjAddr: 0x4E14, symBinAddr: 0x10000AB5C, symSize: 0x18 }
...
