---
triple:          'arm64-apple-darwin'
binary-path:     game
relocations:
  - { offsetInCU: 0x3F, offset: 0x3F, size: 0x8, addend: 0x0, symName: __ZL11pizzaCentre, symObjAddr: 0x5F9D0, symBinAddr: 0x10000C000, symSize: 0x0 }
  - { offsetInCU: 0x3B5A, offset: 0x3B5A, size: 0x8, addend: 0x0, symName: __ZN2sfmiIfEENS_7Vector2IT_EERKS3_S5_, symObjAddr: 0x9A4, symBinAddr: 0x100003368, symSize: 0x58 }
  - { offsetInCU: 0x3B9D, offset: 0x3B9D, size: 0x8, addend: 0x0, symName: __ZN2sfplIfEENS_7Vector2IT_EERKS3_S5_, symObjAddr: 0x9FC, symBinAddr: 0x1000033C0, symSize: 0x58 }
  - { offsetInCU: 0x12CCF, offset: 0x12CCF, size: 0x8, addend: 0x0, symName: __ZNSt3__1neB8ue170006IPN2sf11VertexArrayEEEbRKNS_11__wrap_iterIT_EES8_, symObjAddr: 0xB4C, symBinAddr: 0x100003510, symSize: 0x34 }
  - { offsetInCU: 0x12D12, offset: 0x12D12, size: 0x8, addend: 0x0, symName: __ZNSt3__130__libcpp_is_constant_evaluatedB8ue170006Ev, symObjAddr: 0xEA0, symBinAddr: 0x100003864, symSize: 0xC }
  - { offsetInCU: 0x12D2F, offset: 0x12D2F, size: 0x8, addend: 0x0, symName: __ZNSt3__119__libcpp_deallocateB8ue170006EPvmm, symObjAddr: 0xF54, symBinAddr: 0x100003918, symSize: 0x30 }
  - { offsetInCU: 0x12D77, offset: 0x12D77, size: 0x8, addend: 0x0, symName: __ZNSt3__127__do_deallocate_handle_sizeB8ue170006IJEEEvPvmDpT_, symObjAddr: 0xF84, symBinAddr: 0x100003948, symSize: 0x28 }
  - { offsetInCU: 0x12DB5, offset: 0x12DB5, size: 0x8, addend: 0x0, symName: __ZNSt3__124__libcpp_operator_deleteB8ue170006IJPvEEEvDpT_, symObjAddr: 0xFAC, symBinAddr: 0x100003970, symSize: 0x24 }
  - { offsetInCU: 0x12DEA, offset: 0x12DEA, size: 0x8, addend: 0x0, symName: __ZNSt3__112__to_addressB8ue170006IN2sf6VertexEEEPT_S4_, symObjAddr: 0x147C, symBinAddr: 0x100003E40, symSize: 0x14 }
  - { offsetInCU: 0x12E1F, offset: 0x12E1F, size: 0x8, addend: 0x0, symName: __ZNSt3__112__to_addressB8ue170006IN2sf7Vector2IfEEEEPT_S5_, symObjAddr: 0x1A50, symBinAddr: 0x100004414, symSize: 0x14 }
  - { offsetInCU: 0x12E54, offset: 0x12E54, size: 0x8, addend: 0x0, symName: __ZNSt3__112__to_addressB8ue170006IN2sf11VertexArrayEEEPT_S4_, symObjAddr: 0x2130, symBinAddr: 0x100004AF4, symSize: 0x14 }
  - { offsetInCU: 0x12E89, offset: 0x12E89, size: 0x8, addend: 0x0, symName: __ZNSt3__122__make_exception_guardB8ue170006INS_6vectorIN2sf6VertexENS_9allocatorIS3_EEE16__destroy_vectorEEENS_28__exception_guard_exceptionsIT_EES9_, symObjAddr: 0x299C, symBinAddr: 0x100005360, symSize: 0x40 }
  - { offsetInCU: 0x12EBE, offset: 0x12EBE, size: 0x8, addend: 0x0, symName: __ZNSt3__119__allocate_at_leastB8ue170006INS_9allocatorIN2sf6VertexEEEEENS_19__allocation_resultINS_16allocator_traitsIT_E7pointerEEERS7_m, symObjAddr: 0x2C54, symBinAddr: 0x100005618, symSize: 0x40 }
  - { offsetInCU: 0x12F01, offset: 0x12F01, size: 0x8, addend: 0x0, symName: __ZNSt3__13minB8ue170006ImEERKT_S3_S3_, symObjAddr: 0x2D84, symBinAddr: 0x100005748, symSize: 0x2C }
  - { offsetInCU: 0x13145, offset: 0x13145, size: 0x8, addend: 0x0, symName: __ZNSt3__13minB8ue170006ImNS_6__lessIvvEEEERKT_S5_S5_T0_, symObjAddr: 0x2DE8, symBinAddr: 0x1000057AC, symSize: 0x54 }
  - { offsetInCU: 0x131E4, offset: 0x131E4, size: 0x8, addend: 0x0, symName: __ZNSt3__120__throw_length_errorB8ue170006EPKc, symObjAddr: 0x2E90, symBinAddr: 0x100005854, symSize: 0x64 }
  - { offsetInCU: 0x1320E, offset: 0x1320E, size: 0x8, addend: 0x0, symName: __ZNSt3__117__libcpp_allocateB8ue170006Emm, symObjAddr: 0x3034, symBinAddr: 0x1000059F8, symSize: 0x28 }
  - { offsetInCU: 0x1324B, offset: 0x1324B, size: 0x8, addend: 0x0, symName: __ZNSt3__121__libcpp_operator_newB8ue170006IJmEEEPvDpT_, symObjAddr: 0x305C, symBinAddr: 0x100005A20, symSize: 0x24 }
  - { offsetInCU: 0x13284, offset: 0x13284, size: 0x8, addend: 0x0, symName: __ZNSt3__130__uninitialized_allocator_copyB8ue170006INS_9allocatorIN2sf6VertexEEEPS3_S5_S5_EET2_RT_T0_T1_S6_, symObjAddr: 0x30F4, symBinAddr: 0x100005AB8, symSize: 0x80 }
  - { offsetInCU: 0x13321, offset: 0x13321, size: 0x8, addend: 0x0, symName: __ZNSt3__114__unwrap_rangeB8ue170006IPN2sf6VertexES3_EENS_4pairIT0_S5_EET_S7_, symObjAddr: 0x31EC, symBinAddr: 0x100005BB0, symSize: 0x60 }
  - { offsetInCU: 0x1336D, offset: 0x1336D, size: 0x8, addend: 0x0, symName: __ZNSt3__135__uninitialized_allocator_copy_implB8ue170006INS_9allocatorIN2sf6VertexEEEPS3_S5_S5_EET2_RT_T0_T1_S6_, symObjAddr: 0x324C, symBinAddr: 0x100005C10, symSize: 0xFC }
  - { offsetInCU: 0x1340B, offset: 0x1340B, size: 0x8, addend: 0x0, symName: __ZNSt3__113__unwrap_iterB8ue170006IPN2sf6VertexENS_18__unwrap_iter_implIS3_Lb1EEELi0EEEDTclsrT0_8__unwrapclsr3stdE7declvalIT_EEEES7_, symObjAddr: 0x3348, symBinAddr: 0x100005D0C, symSize: 0x24 }
  - { offsetInCU: 0x1344F, offset: 0x1344F, size: 0x8, addend: 0x0, symName: __ZNSt3__113__rewrap_iterB8ue170006IPN2sf6VertexES3_NS_18__unwrap_iter_implIS3_Lb1EEEEET_S6_T0_, symObjAddr: 0x336C, symBinAddr: 0x100005D30, symSize: 0x50 }
  - { offsetInCU: 0x134A4, offset: 0x134A4, size: 0x8, addend: 0x0, symName: __ZNSt3__19make_pairB8ue170006IPN2sf6VertexES3_EENS_4pairINS_18__unwrap_ref_decayIT_E4typeENS5_IT0_E4typeEEEOS6_OS9_, symObjAddr: 0x33BC, symBinAddr: 0x100005D80, symSize: 0x38 }
  - { offsetInCU: 0x135A0, offset: 0x135A0, size: 0x8, addend: 0x0, symName: __ZNSt3__122__make_exception_guardB8ue170006INS_29_AllocatorDestroyRangeReverseINS_9allocatorIN2sf6VertexEEEPS4_EEEENS_28__exception_guard_exceptionsIT_EES9_, symObjAddr: 0x3464, symBinAddr: 0x100005E28, symSize: 0x4C }
  - { offsetInCU: 0x135D6, offset: 0x135D6, size: 0x8, addend: 0x0, symName: __ZNSt3__119__allocator_destroyB8ue170006INS_9allocatorIN2sf6VertexEEENS_16reverse_iteratorIPS3_EES7_EEvRT_T0_T1_, symObjAddr: 0x36EC, symBinAddr: 0x1000060B0, symSize: 0x70 }
  - { offsetInCU: 0x13639, offset: 0x13639, size: 0x8, addend: 0x0, symName: __ZNSt3__1neB8ue170006IPN2sf6VertexES3_EEbRKNS_16reverse_iteratorIT_EERKNS4_IT0_EE, symObjAddr: 0x3790, symBinAddr: 0x100006154, symSize: 0x48 }
  - { offsetInCU: 0x13685, offset: 0x13685, size: 0x8, addend: 0x0, symName: __ZNSt3__112__to_addressB8ue170006INS_16reverse_iteratorIPN2sf6VertexEEEvEEu7__decayIDTclsr19__to_address_helperIT_EE6__callclsr3stdE7declvalIRKS6_EEEEES8_, symObjAddr: 0x37D8, symBinAddr: 0x10000619C, symSize: 0x24 }
  - { offsetInCU: 0x13737, offset: 0x13737, size: 0x8, addend: 0x0, symName: __ZNSt3__13maxB8ue170006ImEERKT_S3_S3_, symObjAddr: 0x3CBC, symBinAddr: 0x100006680, symSize: 0x2C }
  - { offsetInCU: 0x1377A, offset: 0x1377A, size: 0x8, addend: 0x0, symName: __ZNSt3__13maxB8ue170006ImNS_6__lessIvvEEEERKT_S5_S5_T0_, symObjAddr: 0x3D84, symBinAddr: 0x100006748, symSize: 0x54 }
  - { offsetInCU: 0x137D4, offset: 0x137D4, size: 0x8, addend: 0x0, symName: __ZNSt3__119__allocate_at_leastB8ue170006INS_9allocatorIN2sf11VertexArrayEEEEENS_19__allocation_resultINS_16allocator_traitsIT_E7pointerEEERS7_m, symObjAddr: 0x3EF4, symBinAddr: 0x1000068B8, symSize: 0x40 }
  - { offsetInCU: 0x13817, offset: 0x13817, size: 0x8, addend: 0x0, symName: __ZNSt3__142__uninitialized_allocator_move_if_noexceptB8ue170006INS_9allocatorIN2sf11VertexArrayEEENS_16reverse_iteratorIPS3_EES7_S7_EET2_RT_T0_T1_S8_, symObjAddr: 0x40DC, symBinAddr: 0x100006AA0, symSize: 0x134 }
  - { offsetInCU: 0x138B7, offset: 0x138B7, size: 0x8, addend: 0x0, symName: __ZNSt3__14swapB8ue170006IPN2sf11VertexArrayEEEvRT_S5_, symObjAddr: 0x425C, symBinAddr: 0x100006C20, symSize: 0x3C }
  - { offsetInCU: 0x13908, offset: 0x13908, size: 0x8, addend: 0x0, symName: __ZNSt3__122__make_exception_guardB8ue170006INS_29_AllocatorDestroyRangeReverseINS_9allocatorIN2sf11VertexArrayEEENS_16reverse_iteratorIPS4_EEEEEENS_28__exception_guard_exceptionsIT_EESB_, symObjAddr: 0x4360, symBinAddr: 0x100006D24, symSize: 0x4C }
  - { offsetInCU: 0x1393E, offset: 0x1393E, size: 0x8, addend: 0x0, symName: __ZNSt3__1neB8ue170006IPN2sf11VertexArrayES3_EEbRKNS_16reverse_iteratorIT_EERKNS4_IT0_EE, symObjAddr: 0x43F0, symBinAddr: 0x100006DB4, symSize: 0x48 }
  - { offsetInCU: 0x1398A, offset: 0x1398A, size: 0x8, addend: 0x0, symName: __ZNSt3__112__to_addressB8ue170006INS_16reverse_iteratorIPN2sf11VertexArrayEEEvEEu7__decayIDTclsr19__to_address_helperIT_EE6__callclsr3stdE7declvalIRKS6_EEEEES8_, symObjAddr: 0x4438, symBinAddr: 0x100006DFC, symSize: 0x24 }
  - { offsetInCU: 0x139E9, offset: 0x139E9, size: 0x8, addend: 0x0, symName: __ZNSt3__119__allocator_destroyB8ue170006INS_9allocatorIN2sf11VertexArrayEEENS_16reverse_iteratorINS5_IPS3_EEEES8_EEvRT_T0_T1_, symObjAddr: 0x46F4, symBinAddr: 0x1000070B8, symSize: 0x70 }
  - { offsetInCU: 0x13A4E, offset: 0x13A4E, size: 0x8, addend: 0x0, symName: __ZNSt3__1neB8ue170006INS_16reverse_iteratorIPN2sf11VertexArrayEEES5_EEbRKNS1_IT_EERKNS1_IT0_EE, symObjAddr: 0x47A0, symBinAddr: 0x100007164, symSize: 0x60 }
  - { offsetInCU: 0x13A9A, offset: 0x13A9A, size: 0x8, addend: 0x0, symName: __ZNSt3__112__to_addressB8ue170006INS_16reverse_iteratorINS1_IPN2sf11VertexArrayEEEEEvEEu7__decayIDTclsr19__to_address_helperIT_EE6__callclsr3stdE7declvalIRKS7_EEEEES9_, symObjAddr: 0x4800, symBinAddr: 0x1000071C4, symSize: 0x24 }
  - { offsetInCU: 0x13AF9, offset: 0x13AF9, size: 0x8, addend: 0x0, symName: __ZNSt3__1eqB8ue170006IPN2sf11VertexArrayEEEbRKNS_11__wrap_iterIT_EES8_, symObjAddr: 0x4C08, symBinAddr: 0x1000075CC, symSize: 0x48 }
  - { offsetInCU: 0x13D14, offset: 0x13D14, size: 0x8, addend: 0x0, symName: __ZSt28__throw_bad_array_new_lengthB8ue170006v, symObjAddr: 0x3000, symBinAddr: 0x1000059C4, symSize: 0x34 }
  - { offsetInCU: 0x14EF9, offset: 0x14EF9, size: 0x8, addend: 0x0, symName: __ZNSt3__16vectorIN2sf11VertexArrayENS_9allocatorIS2_EEE26__swap_out_circular_bufferERNS_14__split_bufferIS2_RS4_EE, symObjAddr: 0x3AF0, symBinAddr: 0x1000064B4, symSize: 0x110 }
  - { offsetInCU: 0x1721F, offset: 0x1721F, size: 0x8, addend: 0x0, symName: __ZN2sf7Vector2IfEC1Eff, symObjAddr: 0x0, symBinAddr: 0x1000029C4, symSize: 0x3C }
  - { offsetInCU: 0x17265, offset: 0x17265, size: 0x8, addend: 0x0, symName: __Z10unitVectorN2sf7Vector2IfEE, symObjAddr: 0x3C, symBinAddr: 0x100002A00, symSize: 0x68 }
  - { offsetInCU: 0x172A0, offset: 0x172A0, size: 0x8, addend: 0x0, symName: __Z4sqrtB8ue170006f, symObjAddr: 0xA4, symBinAddr: 0x100002A68, symSize: 0x18 }
  - { offsetInCU: 0x172CE, offset: 0x172CE, size: 0x8, addend: 0x0, symName: __Z6randomff, symObjAddr: 0xBC, symBinAddr: 0x100002A80, symSize: 0x58 }
  - { offsetInCU: 0x17317, offset: 0x17317, size: 0x8, addend: 0x0, symName: _main, symObjAddr: 0x114, symBinAddr: 0x100002AD8, symSize: 0x774 }
  - { offsetInCU: 0x174C3, offset: 0x174C3, size: 0x8, addend: 0x0, symName: __ZN2sf15ContextSettingsC1Ejjjjjjb, symObjAddr: 0x888, symBinAddr: 0x10000324C, symSize: 0x70 }
  - { offsetInCU: 0x1754E, offset: 0x1754E, size: 0x8, addend: 0x0, symName: __ZN2sf6StringD1Ev, symObjAddr: 0x8F8, symBinAddr: 0x1000032BC, symSize: 0x2C }
  - { offsetInCU: 0x17578, offset: 0x17578, size: 0x8, addend: 0x0, symName: __Z3cosB8ue170006f, symObjAddr: 0x930, symBinAddr: 0x1000032F4, symSize: 0x24 }
  - { offsetInCU: 0x175A6, offset: 0x175A6, size: 0x8, addend: 0x0, symName: __Z3sinB8ue170006f, symObjAddr: 0x954, symBinAddr: 0x100003318, symSize: 0x24 }
  - { offsetInCU: 0x175D5, offset: 0x175D5, size: 0x8, addend: 0x0, symName: __ZNSt3__16vectorIN2sf11VertexArrayENS_9allocatorIS2_EEEC1B8ue170006Ev, symObjAddr: 0x978, symBinAddr: 0x10000333C, symSize: 0x2C }
  - { offsetInCU: 0x175FD, offset: 0x175FD, size: 0x8, addend: 0x0, symName: __ZNSt3__16vectorIN2sf11VertexArrayENS_9allocatorIS2_EEE9push_backB8ue170006ERKS2_, symObjAddr: 0xA54, symBinAddr: 0x100003418, symSize: 0x6C }
  - { offsetInCU: 0x17633, offset: 0x17633, size: 0x8, addend: 0x0, symName: __ZN2sf11VertexArrayD1Ev, symObjAddr: 0xAC0, symBinAddr: 0x100003484, symSize: 0x2C }
  - { offsetInCU: 0x1765D, offset: 0x1765D, size: 0x8, addend: 0x0, symName: __ZNSt3__16vectorIN2sf11VertexArrayENS_9allocatorIS2_EEE5beginB8ue170006Ev, symObjAddr: 0xAEC, symBinAddr: 0x1000034B0, symSize: 0x30 }
  - { offsetInCU: 0x17683, offset: 0x17683, size: 0x8, addend: 0x0, symName: __ZNSt3__16vectorIN2sf11VertexArrayENS_9allocatorIS2_EEE3endB8ue170006Ev, symObjAddr: 0xB1C, symBinAddr: 0x1000034E0, symSize: 0x30 }
  - { offsetInCU: 0x176AA, offset: 0x176AA, size: 0x8, addend: 0x0, symName: __ZNKSt3__111__wrap_iterIPN2sf11VertexArrayEEdeB8ue170006Ev, symObjAddr: 0xB80, symBinAddr: 0x100003544, symSize: 0x18 }
  - { offsetInCU: 0x176CF, offset: 0x176CF, size: 0x8, addend: 0x0, symName: __ZNSt3__111__wrap_iterIPN2sf11VertexArrayEEppB8ue170006Ev, symObjAddr: 0xB98, symBinAddr: 0x10000355C, symSize: 0x20 }
  - { offsetInCU: 0x176F4, offset: 0x176F4, size: 0x8, addend: 0x0, symName: __ZNSt3__16vectorIN2sf11VertexArrayENS_9allocatorIS2_EEED1B8ue170006Ev, symObjAddr: 0xBB8, symBinAddr: 0x10000357C, symSize: 0x2C }
  - { offsetInCU: 0x1774A, offset: 0x1774A, size: 0x8, addend: 0x0, symName: __ZN2sf11ConvexShapeD1Ev, symObjAddr: 0xBE4, symBinAddr: 0x1000035A8, symSize: 0x2C }
  - { offsetInCU: 0x17784, offset: 0x17784, size: 0x8, addend: 0x0, symName: __ZN2sf11CircleShapeD1Ev, symObjAddr: 0xC10, symBinAddr: 0x1000035D4, symSize: 0x2C }
  - { offsetInCU: 0x177AF, offset: 0x177AF, size: 0x8, addend: 0x0, symName: __ZN2sf15ContextSettingsC2Ejjjjjjb, symObjAddr: 0xC3C, symBinAddr: 0x100003600, symSize: 0x74 }
  - { offsetInCU: 0x1783A, offset: 0x1783A, size: 0x8, addend: 0x0, symName: __ZN2sf6StringD2Ev, symObjAddr: 0xCB0, symBinAddr: 0x100003674, symSize: 0x2C }
  - { offsetInCU: 0x17865, offset: 0x17865, size: 0x8, addend: 0x0, symName: __ZNSt3__112basic_stringIjNS_11char_traitsIjEENS_9allocatorIjEEED1Ev, symObjAddr: 0xCDC, symBinAddr: 0x1000036A0, symSize: 0x2C }
  - { offsetInCU: 0x1788E, offset: 0x1788E, size: 0x8, addend: 0x0, symName: __ZNSt3__112basic_stringIjNS_11char_traitsIjEENS_9allocatorIjEEED2Ev, symObjAddr: 0xD08, symBinAddr: 0x1000036CC, symSize: 0x74 }
  - { offsetInCU: 0x178B7, offset: 0x178B7, size: 0x8, addend: 0x0, symName: __ZNKSt3__112basic_stringIjNS_11char_traitsIjEENS_9allocatorIjEEE9__is_longB8ue170006Ev, symObjAddr: 0xD7C, symBinAddr: 0x100003740, symSize: 0x74 }
  - { offsetInCU: 0x178DC, offset: 0x178DC, size: 0x8, addend: 0x0, symName: __ZNSt3__116allocator_traitsINS_9allocatorIjEEE10deallocateB8ue170006ERS2_Pjm, symObjAddr: 0xDF0, symBinAddr: 0x1000037B4, symSize: 0x34 }
  - { offsetInCU: 0x1791E, offset: 0x1791E, size: 0x8, addend: 0x0, symName: __ZNSt3__112basic_stringIjNS_11char_traitsIjEENS_9allocatorIjEEE7__allocB8ue170006Ev, symObjAddr: 0xE24, symBinAddr: 0x1000037E8, symSize: 0x24 }
  - { offsetInCU: 0x17943, offset: 0x17943, size: 0x8, addend: 0x0, symName: __ZNSt3__112basic_stringIjNS_11char_traitsIjEENS_9allocatorIjEEE18__get_long_pointerB8ue170006Ev, symObjAddr: 0xE48, symBinAddr: 0x10000380C, symSize: 0x28 }
  - { offsetInCU: 0x17968, offset: 0x17968, size: 0x8, addend: 0x0, symName: __ZNKSt3__112basic_stringIjNS_11char_traitsIjEENS_9allocatorIjEEE14__get_long_capB8ue170006Ev, symObjAddr: 0xE70, symBinAddr: 0x100003834, symSize: 0x30 }
  - { offsetInCU: 0x1798D, offset: 0x1798D, size: 0x8, addend: 0x0, symName: __ZNKSt3__117__compressed_pairINS_12basic_stringIjNS_11char_traitsIjEENS_9allocatorIjEEE5__repES5_E5firstB8ue170006Ev, symObjAddr: 0xEAC, symBinAddr: 0x100003870, symSize: 0x24 }
  - { offsetInCU: 0x179B2, offset: 0x179B2, size: 0x8, addend: 0x0, symName: __ZNKSt3__122__compressed_pair_elemINS_12basic_stringIjNS_11char_traitsIjEENS_9allocatorIjEEE5__repELi0ELb0EE5__getB8ue170006Ev, symObjAddr: 0xED0, symBinAddr: 0x100003894, symSize: 0x14 }
  - { offsetInCU: 0x179D7, offset: 0x179D7, size: 0x8, addend: 0x0, symName: __ZNSt3__19allocatorIjE10deallocateB8ue170006EPjm, symObjAddr: 0xEE4, symBinAddr: 0x1000038A8, symSize: 0x70 }
  - { offsetInCU: 0x17A18, offset: 0x17A18, size: 0x8, addend: 0x0, symName: __ZNSt3__117__compressed_pairINS_12basic_stringIjNS_11char_traitsIjEENS_9allocatorIjEEE5__repES5_E6secondB8ue170006Ev, symObjAddr: 0xFD0, symBinAddr: 0x100003994, symSize: 0x24 }
  - { offsetInCU: 0x17A3D, offset: 0x17A3D, size: 0x8, addend: 0x0, symName: __ZNSt3__122__compressed_pair_elemINS_9allocatorIjEELi1ELb1EE5__getB8ue170006Ev, symObjAddr: 0xFF4, symBinAddr: 0x1000039B8, symSize: 0x14 }
  - { offsetInCU: 0x17A62, offset: 0x17A62, size: 0x8, addend: 0x0, symName: __ZNSt3__117__compressed_pairINS_12basic_stringIjNS_11char_traitsIjEENS_9allocatorIjEEE5__repES5_E5firstB8ue170006Ev, symObjAddr: 0x1008, symBinAddr: 0x1000039CC, symSize: 0x24 }
  - { offsetInCU: 0x17A87, offset: 0x17A87, size: 0x8, addend: 0x0, symName: __ZNSt3__122__compressed_pair_elemINS_12basic_stringIjNS_11char_traitsIjEENS_9allocatorIjEEE5__repELi0ELb0EE5__getB8ue170006Ev, symObjAddr: 0x102C, symBinAddr: 0x1000039F0, symSize: 0x14 }
  - { offsetInCU: 0x17AAC, offset: 0x17AAC, size: 0x8, addend: 0x0, symName: __ZN2sf11VertexArrayD2Ev, symObjAddr: 0x1040, symBinAddr: 0x100003A04, symSize: 0x78 }
  - { offsetInCU: 0x17AD7, offset: 0x17AD7, size: 0x8, addend: 0x0, symName: __ZNSt3__16vectorIN2sf6VertexENS_9allocatorIS2_EEED1B8ue170006Ev, symObjAddr: 0x10B8, symBinAddr: 0x100003A7C, symSize: 0x2C }
  - { offsetInCU: 0x17B00, offset: 0x17B00, size: 0x8, addend: 0x0, symName: __ZN2sf8DrawableD2Ev, symObjAddr: 0x10E4, symBinAddr: 0x100003AA8, symSize: 0x14 }
  - { offsetInCU: 0x17B29, offset: 0x17B29, size: 0x8, addend: 0x0, symName: __ZNSt3__16vectorIN2sf6VertexENS_9allocatorIS2_EEED2B8ue170006Ev, symObjAddr: 0x10F8, symBinAddr: 0x100003ABC, symSize: 0x3C }
  - { offsetInCU: 0x17B52, offset: 0x17B52, size: 0x8, addend: 0x0, symName: __ZNSt3__16vectorIN2sf6VertexENS_9allocatorIS2_EEE16__destroy_vectorC1B8ue170006ERS5_, symObjAddr: 0x1134, symBinAddr: 0x100003AF8, symSize: 0x34 }
  - { offsetInCU: 0x17B8A, offset: 0x17B8A, size: 0x8, addend: 0x0, symName: __ZNSt3__16vectorIN2sf6VertexENS_9allocatorIS2_EEE16__destroy_vectorclB8ue170006Ev, symObjAddr: 0x1168, symBinAddr: 0x100003B2C, symSize: 0x90 }
  - { offsetInCU: 0x17BAF, offset: 0x17BAF, size: 0x8, addend: 0x0, symName: __ZNSt3__16vectorIN2sf6VertexENS_9allocatorIS2_EEE16__destroy_vectorC2B8ue170006ERS5_, symObjAddr: 0x11F8, symBinAddr: 0x100003BBC, symSize: 0x20 }
  - { offsetInCU: 0x17BE7, offset: 0x17BE7, size: 0x8, addend: 0x0, symName: __ZNSt3__16vectorIN2sf6VertexENS_9allocatorIS2_EEE7__clearB8ue170006Ev, symObjAddr: 0x1218, symBinAddr: 0x100003BDC, symSize: 0x28 }
  - { offsetInCU: 0x17C0C, offset: 0x17C0C, size: 0x8, addend: 0x0, symName: __ZNKSt3__16vectorIN2sf6VertexENS_9allocatorIS2_EEE17__annotate_deleteB8ue170006Ev, symObjAddr: 0x1240, symBinAddr: 0x100003C04, symSize: 0xD4 }
  - { offsetInCU: 0x17C31, offset: 0x17C31, size: 0x8, addend: 0x0, symName: __ZNSt3__116allocator_traitsINS_9allocatorIN2sf6VertexEEEE10deallocateB8ue170006ERS4_PS3_m, symObjAddr: 0x1314, symBinAddr: 0x100003CD8, symSize: 0x34 }
  - { offsetInCU: 0x17C73, offset: 0x17C73, size: 0x8, addend: 0x0, symName: __ZNSt3__16vectorIN2sf6VertexENS_9allocatorIS2_EEE7__allocB8ue170006Ev, symObjAddr: 0x1348, symBinAddr: 0x100003D0C, symSize: 0x28 }
  - { offsetInCU: 0x17C98, offset: 0x17C98, size: 0x8, addend: 0x0, symName: __ZNKSt3__16vectorIN2sf6VertexENS_9allocatorIS2_EEE8capacityB8ue170006Ev, symObjAddr: 0x1370, symBinAddr: 0x100003D34, symSize: 0x40 }
  - { offsetInCU: 0x17CBD, offset: 0x17CBD, size: 0x8, addend: 0x0, symName: __ZNSt3__16vectorIN2sf6VertexENS_9allocatorIS2_EEE22__base_destruct_at_endB8ue170006EPS2_, symObjAddr: 0x13B0, symBinAddr: 0x100003D74, symSize: 0xA0 }
  - { offsetInCU: 0x17D00, offset: 0x17D00, size: 0x8, addend: 0x0, symName: __ZNSt3__116allocator_traitsINS_9allocatorIN2sf6VertexEEEE7destroyB8ue170006IS3_vEEvRS4_PT_, symObjAddr: 0x1450, symBinAddr: 0x100003E14, symSize: 0x2C }
  - { offsetInCU: 0x17D3D, offset: 0x17D3D, size: 0x8, addend: 0x0, symName: __ZNSt3__19allocatorIN2sf6VertexEE7destroyB8ue170006EPS2_, symObjAddr: 0x1490, symBinAddr: 0x100003E54, symSize: 0x14 }
  - { offsetInCU: 0x17D70, offset: 0x17D70, size: 0x8, addend: 0x0, symName: __ZNKSt3__16vectorIN2sf6VertexENS_9allocatorIS2_EEE31__annotate_contiguous_containerB8ue170006EPKvS7_S7_S7_, symObjAddr: 0x14A4, symBinAddr: 0x100003E68, symSize: 0x20 }
  - { offsetInCU: 0x17DC5, offset: 0x17DC5, size: 0x8, addend: 0x0, symName: __ZNKSt3__16vectorIN2sf6VertexENS_9allocatorIS2_EEE4dataB8ue170006Ev, symObjAddr: 0x14C4, symBinAddr: 0x100003E88, symSize: 0x28 }
  - { offsetInCU: 0x17DEA, offset: 0x17DEA, size: 0x8, addend: 0x0, symName: __ZNKSt3__16vectorIN2sf6VertexENS_9allocatorIS2_EEE4sizeB8ue170006Ev, symObjAddr: 0x14EC, symBinAddr: 0x100003EB0, symSize: 0x28 }
  - { offsetInCU: 0x17E0F, offset: 0x17E0F, size: 0x8, addend: 0x0, symName: __ZNSt3__19allocatorIN2sf6VertexEE10deallocateB8ue170006EPS2_m, symObjAddr: 0x1514, symBinAddr: 0x100003ED8, symSize: 0x74 }
  - { offsetInCU: 0x17E50, offset: 0x17E50, size: 0x8, addend: 0x0, symName: __ZNSt3__117__compressed_pairIPN2sf6VertexENS_9allocatorIS2_EEE6secondB8ue170006Ev, symObjAddr: 0x1588, symBinAddr: 0x100003F4C, symSize: 0x24 }
  - { offsetInCU: 0x17E75, offset: 0x17E75, size: 0x8, addend: 0x0, symName: __ZNSt3__122__compressed_pair_elemINS_9allocatorIN2sf6VertexEEELi1ELb1EE5__getB8ue170006Ev, symObjAddr: 0x15AC, symBinAddr: 0x100003F70, symSize: 0x14 }
  - { offsetInCU: 0x17E9A, offset: 0x17E9A, size: 0x8, addend: 0x0, symName: __ZNKSt3__16vectorIN2sf6VertexENS_9allocatorIS2_EEE9__end_capB8ue170006Ev, symObjAddr: 0x15C0, symBinAddr: 0x100003F84, symSize: 0x28 }
  - { offsetInCU: 0x17EBF, offset: 0x17EBF, size: 0x8, addend: 0x0, symName: __ZNKSt3__117__compressed_pairIPN2sf6VertexENS_9allocatorIS2_EEE5firstB8ue170006Ev, symObjAddr: 0x15E8, symBinAddr: 0x100003FAC, symSize: 0x24 }
  - { offsetInCU: 0x17EE4, offset: 0x17EE4, size: 0x8, addend: 0x0, symName: __ZNKSt3__122__compressed_pair_elemIPN2sf6VertexELi0ELb0EE5__getB8ue170006Ev, symObjAddr: 0x160C, symBinAddr: 0x100003FD0, symSize: 0x14 }
  - { offsetInCU: 0x17F09, offset: 0x17F09, size: 0x8, addend: 0x0, symName: __ZN2sf11ConvexShapeD2Ev, symObjAddr: 0x1620, symBinAddr: 0x100003FE4, symSize: 0x80 }
  - { offsetInCU: 0x17F34, offset: 0x17F34, size: 0x8, addend: 0x0, symName: __ZThn8_N2sf11ConvexShapeD1Ev, symObjAddr: 0x16A0, symBinAddr: 0x100004064, symSize: 0x1C }
  - { offsetInCU: 0x17F4A, offset: 0x17F4A, size: 0x8, addend: 0x0, symName: __ZNSt3__16vectorIN2sf7Vector2IfEENS_9allocatorIS3_EEED1B8ue170006Ev, symObjAddr: 0x16BC, symBinAddr: 0x100004080, symSize: 0x2C }
  - { offsetInCU: 0x17F73, offset: 0x17F73, size: 0x8, addend: 0x0, symName: __ZNSt3__16vectorIN2sf7Vector2IfEENS_9allocatorIS3_EEED2B8ue170006Ev, symObjAddr: 0x16E8, symBinAddr: 0x1000040AC, symSize: 0x3C }
  - { offsetInCU: 0x17F9C, offset: 0x17F9C, size: 0x8, addend: 0x0, symName: __ZNSt3__16vectorIN2sf7Vector2IfEENS_9allocatorIS3_EEE16__destroy_vectorC1B8ue170006ERS6_, symObjAddr: 0x1724, symBinAddr: 0x1000040E8, symSize: 0x34 }
  - { offsetInCU: 0x17FD4, offset: 0x17FD4, size: 0x8, addend: 0x0, symName: __ZNSt3__16vectorIN2sf7Vector2IfEENS_9allocatorIS3_EEE16__destroy_vectorclB8ue170006Ev, symObjAddr: 0x1758, symBinAddr: 0x10000411C, symSize: 0x90 }
  - { offsetInCU: 0x17FF9, offset: 0x17FF9, size: 0x8, addend: 0x0, symName: __ZNSt3__16vectorIN2sf7Vector2IfEENS_9allocatorIS3_EEE16__destroy_vectorC2B8ue170006ERS6_, symObjAddr: 0x17E8, symBinAddr: 0x1000041AC, symSize: 0x20 }
  - { offsetInCU: 0x18031, offset: 0x18031, size: 0x8, addend: 0x0, symName: __ZNSt3__16vectorIN2sf7Vector2IfEENS_9allocatorIS3_EEE7__clearB8ue170006Ev, symObjAddr: 0x1808, symBinAddr: 0x1000041CC, symSize: 0x28 }
  - { offsetInCU: 0x18056, offset: 0x18056, size: 0x8, addend: 0x0, symName: __ZNKSt3__16vectorIN2sf7Vector2IfEENS_9allocatorIS3_EEE17__annotate_deleteB8ue170006Ev, symObjAddr: 0x1830, symBinAddr: 0x1000041F4, symSize: 0xB8 }
  - { offsetInCU: 0x1807B, offset: 0x1807B, size: 0x8, addend: 0x0, symName: __ZNSt3__116allocator_traitsINS_9allocatorIN2sf7Vector2IfEEEEE10deallocateB8ue170006ERS5_PS4_m, symObjAddr: 0x18E8, symBinAddr: 0x1000042AC, symSize: 0x34 }
  - { offsetInCU: 0x180BD, offset: 0x180BD, size: 0x8, addend: 0x0, symName: __ZNSt3__16vectorIN2sf7Vector2IfEENS_9allocatorIS3_EEE7__allocB8ue170006Ev, symObjAddr: 0x191C, symBinAddr: 0x1000042E0, symSize: 0x28 }
  - { offsetInCU: 0x180E2, offset: 0x180E2, size: 0x8, addend: 0x0, symName: __ZNKSt3__16vectorIN2sf7Vector2IfEENS_9allocatorIS3_EEE8capacityB8ue170006Ev, symObjAddr: 0x1944, symBinAddr: 0x100004308, symSize: 0x40 }
  - { offsetInCU: 0x18107, offset: 0x18107, size: 0x8, addend: 0x0, symName: __ZNSt3__16vectorIN2sf7Vector2IfEENS_9allocatorIS3_EEE22__base_destruct_at_endB8ue170006EPS3_, symObjAddr: 0x1984, symBinAddr: 0x100004348, symSize: 0xA0 }
  - { offsetInCU: 0x1814A, offset: 0x1814A, size: 0x8, addend: 0x0, symName: __ZNSt3__116allocator_traitsINS_9allocatorIN2sf7Vector2IfEEEEE7destroyB8ue170006IS4_vEEvRS5_PT_, symObjAddr: 0x1A24, symBinAddr: 0x1000043E8, symSize: 0x2C }
  - { offsetInCU: 0x18187, offset: 0x18187, size: 0x8, addend: 0x0, symName: __ZNSt3__19allocatorIN2sf7Vector2IfEEE7destroyB8ue170006EPS3_, symObjAddr: 0x1A64, symBinAddr: 0x100004428, symSize: 0x14 }
  - { offsetInCU: 0x181BA, offset: 0x181BA, size: 0x8, addend: 0x0, symName: __ZNKSt3__16vectorIN2sf7Vector2IfEENS_9allocatorIS3_EEE31__annotate_contiguous_containerB8ue170006EPKvS8_S8_S8_, symObjAddr: 0x1A78, symBinAddr: 0x10000443C, symSize: 0x20 }
  - { offsetInCU: 0x1820F, offset: 0x1820F, size: 0x8, addend: 0x0, symName: __ZNKSt3__16vectorIN2sf7Vector2IfEENS_9allocatorIS3_EEE4dataB8ue170006Ev, symObjAddr: 0x1A98, symBinAddr: 0x10000445C, symSize: 0x28 }
  - { offsetInCU: 0x18234, offset: 0x18234, size: 0x8, addend: 0x0, symName: __ZNKSt3__16vectorIN2sf7Vector2IfEENS_9allocatorIS3_EEE4sizeB8ue170006Ev, symObjAddr: 0x1AC0, symBinAddr: 0x100004484, symSize: 0x28 }
  - { offsetInCU: 0x18259, offset: 0x18259, size: 0x8, addend: 0x0, symName: __ZNSt3__19allocatorIN2sf7Vector2IfEEE10deallocateB8ue170006EPS3_m, symObjAddr: 0x1AE8, symBinAddr: 0x1000044AC, symSize: 0x70 }
  - { offsetInCU: 0x1829A, offset: 0x1829A, size: 0x8, addend: 0x0, symName: __ZNSt3__117__compressed_pairIPN2sf7Vector2IfEENS_9allocatorIS3_EEE6secondB8ue170006Ev, symObjAddr: 0x1B58, symBinAddr: 0x10000451C, symSize: 0x24 }
  - { offsetInCU: 0x182BF, offset: 0x182BF, size: 0x8, addend: 0x0, symName: __ZNSt3__122__compressed_pair_elemINS_9allocatorIN2sf7Vector2IfEEEELi1ELb1EE5__getB8ue170006Ev, symObjAddr: 0x1B7C, symBinAddr: 0x100004540, symSize: 0x14 }
  - { offsetInCU: 0x182E4, offset: 0x182E4, size: 0x8, addend: 0x0, symName: __ZNKSt3__16vectorIN2sf7Vector2IfEENS_9allocatorIS3_EEE9__end_capB8ue170006Ev, symObjAddr: 0x1B90, symBinAddr: 0x100004554, symSize: 0x28 }
  - { offsetInCU: 0x18309, offset: 0x18309, size: 0x8, addend: 0x0, symName: __ZNKSt3__117__compressed_pairIPN2sf7Vector2IfEENS_9allocatorIS3_EEE5firstB8ue170006Ev, symObjAddr: 0x1BB8, symBinAddr: 0x10000457C, symSize: 0x24 }
  - { offsetInCU: 0x1832E, offset: 0x1832E, size: 0x8, addend: 0x0, symName: __ZNKSt3__122__compressed_pair_elemIPN2sf7Vector2IfEELi0ELb0EE5__getB8ue170006Ev, symObjAddr: 0x1BDC, symBinAddr: 0x1000045A0, symSize: 0x14 }
  - { offsetInCU: 0x18353, offset: 0x18353, size: 0x8, addend: 0x0, symName: __ZN2sf11CircleShapeD2Ev, symObjAddr: 0x1BF0, symBinAddr: 0x1000045B4, symSize: 0x2C }
  - { offsetInCU: 0x1837E, offset: 0x1837E, size: 0x8, addend: 0x0, symName: __ZThn8_N2sf11CircleShapeD1Ev, symObjAddr: 0x1C1C, symBinAddr: 0x1000045E0, symSize: 0x1C }
  - { offsetInCU: 0x18394, offset: 0x18394, size: 0x8, addend: 0x0, symName: __ZN2sf7Vector2IfEC2Eff, symObjAddr: 0x1C38, symBinAddr: 0x1000045FC, symSize: 0x2C }
  - { offsetInCU: 0x183DB, offset: 0x183DB, size: 0x8, addend: 0x0, symName: __ZNSt3__16vectorIN2sf11VertexArrayENS_9allocatorIS2_EEEC2B8ue170006Ev, symObjAddr: 0x1C64, symBinAddr: 0x100004628, symSize: 0x44 }
  - { offsetInCU: 0x1840E, offset: 0x1840E, size: 0x8, addend: 0x0, symName: __ZNSt3__117__compressed_pairIPN2sf11VertexArrayENS_9allocatorIS2_EEEC1B8ue170006IDnNS_18__default_init_tagEEEOT_OT0_, symObjAddr: 0x1CA8, symBinAddr: 0x10000466C, symSize: 0x3C }
  - { offsetInCU: 0x18465, offset: 0x18465, size: 0x8, addend: 0x0, symName: __ZNSt3__117__compressed_pairIPN2sf11VertexArrayENS_9allocatorIS2_EEEC2B8ue170006IDnNS_18__default_init_tagEEEOT_OT0_, symObjAddr: 0x1CE4, symBinAddr: 0x1000046A8, symSize: 0x40 }
  - { offsetInCU: 0x184BC, offset: 0x184BC, size: 0x8, addend: 0x0, symName: __ZNSt3__122__compressed_pair_elemIPN2sf11VertexArrayELi0ELb0EEC2B8ue170006IDnvEEOT_, symObjAddr: 0x1D24, symBinAddr: 0x1000046E8, symSize: 0x1C }
  - { offsetInCU: 0x184FD, offset: 0x184FD, size: 0x8, addend: 0x0, symName: __ZNSt3__122__compressed_pair_elemINS_9allocatorIN2sf11VertexArrayEEELi1ELb1EEC2B8ue170006ENS_18__default_init_tagE, symObjAddr: 0x1D40, symBinAddr: 0x100004704, symSize: 0x2C }
  - { offsetInCU: 0x18531, offset: 0x18531, size: 0x8, addend: 0x0, symName: __ZNSt3__19allocatorIN2sf11VertexArrayEEC2B8ue170006Ev, symObjAddr: 0x1D6C, symBinAddr: 0x100004730, symSize: 0x2C }
  - { offsetInCU: 0x1855A, offset: 0x1855A, size: 0x8, addend: 0x0, symName: __ZNSt3__116__non_trivial_ifILb1ENS_9allocatorIN2sf11VertexArrayEEEEC2B8ue170006Ev, symObjAddr: 0x1D98, symBinAddr: 0x10000475C, symSize: 0x14 }
  - { offsetInCU: 0x18583, offset: 0x18583, size: 0x8, addend: 0x0, symName: __ZNSt3__16vectorIN2sf11VertexArrayENS_9allocatorIS2_EEED2B8ue170006Ev, symObjAddr: 0x1DAC, symBinAddr: 0x100004770, symSize: 0x3C }
  - { offsetInCU: 0x185AC, offset: 0x185AC, size: 0x8, addend: 0x0, symName: __ZNSt3__16vectorIN2sf11VertexArrayENS_9allocatorIS2_EEE16__destroy_vectorC1B8ue170006ERS5_, symObjAddr: 0x1DE8, symBinAddr: 0x1000047AC, symSize: 0x34 }
  - { offsetInCU: 0x185E4, offset: 0x185E4, size: 0x8, addend: 0x0, symName: __ZNSt3__16vectorIN2sf11VertexArrayENS_9allocatorIS2_EEE16__destroy_vectorclB8ue170006Ev, symObjAddr: 0x1E1C, symBinAddr: 0x1000047E0, symSize: 0x90 }
  - { offsetInCU: 0x18609, offset: 0x18609, size: 0x8, addend: 0x0, symName: __ZNSt3__16vectorIN2sf11VertexArrayENS_9allocatorIS2_EEE16__destroy_vectorC2B8ue170006ERS5_, symObjAddr: 0x1EAC, symBinAddr: 0x100004870, symSize: 0x20 }
  - { offsetInCU: 0x18641, offset: 0x18641, size: 0x8, addend: 0x0, symName: __ZNSt3__16vectorIN2sf11VertexArrayENS_9allocatorIS2_EEE7__clearB8ue170006Ev, symObjAddr: 0x1ECC, symBinAddr: 0x100004890, symSize: 0x28 }
  - { offsetInCU: 0x18666, offset: 0x18666, size: 0x8, addend: 0x0, symName: __ZNKSt3__16vectorIN2sf11VertexArrayENS_9allocatorIS2_EEE17__annotate_deleteB8ue170006Ev, symObjAddr: 0x1EF4, symBinAddr: 0x1000048B8, symSize: 0xD4 }
  - { offsetInCU: 0x1868B, offset: 0x1868B, size: 0x8, addend: 0x0, symName: __ZNSt3__116allocator_traitsINS_9allocatorIN2sf11VertexArrayEEEE10deallocateB8ue170006ERS4_PS3_m, symObjAddr: 0x1FC8, symBinAddr: 0x10000498C, symSize: 0x34 }
  - { offsetInCU: 0x186CD, offset: 0x186CD, size: 0x8, addend: 0x0, symName: __ZNSt3__16vectorIN2sf11VertexArrayENS_9allocatorIS2_EEE7__allocB8ue170006Ev, symObjAddr: 0x1FFC, symBinAddr: 0x1000049C0, symSize: 0x28 }
  - { offsetInCU: 0x186F2, offset: 0x186F2, size: 0x8, addend: 0x0, symName: __ZNKSt3__16vectorIN2sf11VertexArrayENS_9allocatorIS2_EEE8capacityB8ue170006Ev, symObjAddr: 0x2024, symBinAddr: 0x1000049E8, symSize: 0x40 }
  - { offsetInCU: 0x18717, offset: 0x18717, size: 0x8, addend: 0x0, symName: __ZNSt3__16vectorIN2sf11VertexArrayENS_9allocatorIS2_EEE22__base_destruct_at_endB8ue170006EPS2_, symObjAddr: 0x2064, symBinAddr: 0x100004A28, symSize: 0xA0 }
  - { offsetInCU: 0x1875A, offset: 0x1875A, size: 0x8, addend: 0x0, symName: __ZNSt3__116allocator_traitsINS_9allocatorIN2sf11VertexArrayEEEE7destroyB8ue170006IS3_vEEvRS4_PT_, symObjAddr: 0x2104, symBinAddr: 0x100004AC8, symSize: 0x2C }
  - { offsetInCU: 0x18797, offset: 0x18797, size: 0x8, addend: 0x0, symName: __ZNSt3__19allocatorIN2sf11VertexArrayEE7destroyB8ue170006EPS2_, symObjAddr: 0x2144, symBinAddr: 0x100004B08, symSize: 0x30 }
  - { offsetInCU: 0x187CA, offset: 0x187CA, size: 0x8, addend: 0x0, symName: __ZNKSt3__16vectorIN2sf11VertexArrayENS_9allocatorIS2_EEE31__annotate_contiguous_containerB8ue170006EPKvS7_S7_S7_, symObjAddr: 0x2174, symBinAddr: 0x100004B38, symSize: 0x20 }
  - { offsetInCU: 0x1881F, offset: 0x1881F, size: 0x8, addend: 0x0, symName: __ZNKSt3__16vectorIN2sf11VertexArrayENS_9allocatorIS2_EEE4dataB8ue170006Ev, symObjAddr: 0x2194, symBinAddr: 0x100004B58, symSize: 0x28 }
  - { offsetInCU: 0x18844, offset: 0x18844, size: 0x8, addend: 0x0, symName: __ZNKSt3__16vectorIN2sf11VertexArrayENS_9allocatorIS2_EEE4sizeB8ue170006Ev, symObjAddr: 0x21BC, symBinAddr: 0x100004B80, symSize: 0x28 }
  - { offsetInCU: 0x18869, offset: 0x18869, size: 0x8, addend: 0x0, symName: __ZNSt3__19allocatorIN2sf11VertexArrayEE10deallocateB8ue170006EPS2_m, symObjAddr: 0x21E4, symBinAddr: 0x100004BA8, symSize: 0x74 }
  - { offsetInCU: 0x188AA, offset: 0x188AA, size: 0x8, addend: 0x0, symName: __ZNSt3__117__compressed_pairIPN2sf11VertexArrayENS_9allocatorIS2_EEE6secondB8ue170006Ev, symObjAddr: 0x2258, symBinAddr: 0x100004C1C, symSize: 0x24 }
  - { offsetInCU: 0x188CF, offset: 0x188CF, size: 0x8, addend: 0x0, symName: __ZNSt3__122__compressed_pair_elemINS_9allocatorIN2sf11VertexArrayEEELi1ELb1EE5__getB8ue170006Ev, symObjAddr: 0x227C, symBinAddr: 0x100004C40, symSize: 0x14 }
  - { offsetInCU: 0x188F4, offset: 0x188F4, size: 0x8, addend: 0x0, symName: __ZNKSt3__16vectorIN2sf11VertexArrayENS_9allocatorIS2_EEE9__end_capB8ue170006Ev, symObjAddr: 0x2290, symBinAddr: 0x100004C54, symSize: 0x28 }
  - { offsetInCU: 0x18919, offset: 0x18919, size: 0x8, addend: 0x0, symName: __ZNKSt3__117__compressed_pairIPN2sf11VertexArrayENS_9allocatorIS2_EEE5firstB8ue170006Ev, symObjAddr: 0x22B8, symBinAddr: 0x100004C7C, symSize: 0x24 }
  - { offsetInCU: 0x1893E, offset: 0x1893E, size: 0x8, addend: 0x0, symName: __ZNKSt3__122__compressed_pair_elemIPN2sf11VertexArrayELi0ELb0EE5__getB8ue170006Ev, symObjAddr: 0x22DC, symBinAddr: 0x100004CA0, symSize: 0x14 }
  - { offsetInCU: 0x18963, offset: 0x18963, size: 0x8, addend: 0x0, symName: __ZNSt3__16vectorIN2sf11VertexArrayENS_9allocatorIS2_EEE9__end_capB8ue170006Ev, symObjAddr: 0x22F0, symBinAddr: 0x100004CB4, symSize: 0x28 }
  - { offsetInCU: 0x18988, offset: 0x18988, size: 0x8, addend: 0x0, symName: __ZNSt3__16vectorIN2sf11VertexArrayENS_9allocatorIS2_EEE22__construct_one_at_endB8ue170006IJRKS2_EEEvDpOT_, symObjAddr: 0x2318, symBinAddr: 0x100004CDC, symSize: 0x98 }
  - { offsetInCU: 0x189D5, offset: 0x189D5, size: 0x8, addend: 0x0, symName: __ZNSt3__16vectorIN2sf11VertexArrayENS_9allocatorIS2_EEE21__push_back_slow_pathIRKS2_EEvOT_, symObjAddr: 0x23B0, symBinAddr: 0x100004D74, symSize: 0xE0 }
  - { offsetInCU: 0x18A32, offset: 0x18A32, size: 0x8, addend: 0x0, symName: __ZNSt3__117__compressed_pairIPN2sf11VertexArrayENS_9allocatorIS2_EEE5firstB8ue170006Ev, symObjAddr: 0x2490, symBinAddr: 0x100004E54, symSize: 0x24 }
  - { offsetInCU: 0x18A57, offset: 0x18A57, size: 0x8, addend: 0x0, symName: __ZNSt3__122__compressed_pair_elemIPN2sf11VertexArrayELi0ELb0EE5__getB8ue170006Ev, symObjAddr: 0x24B4, symBinAddr: 0x100004E78, symSize: 0x14 }
  - { offsetInCU: 0x18A95, offset: 0x18A95, size: 0x8, addend: 0x0, symName: __ZNSt3__16vectorIN2sf11VertexArrayENS_9allocatorIS2_EEE21_ConstructTransactionC1B8ue170006ERS5_m, symObjAddr: 0x24C8, symBinAddr: 0x100004E8C, symSize: 0x3C }
  - { offsetInCU: 0x18ADC, offset: 0x18ADC, size: 0x8, addend: 0x0, symName: __ZNSt3__116allocator_traitsINS_9allocatorIN2sf11VertexArrayEEEE9constructB8ue170006IS3_JRKS3_EvEEvRS4_PT_DpOT0_, symObjAddr: 0x2504, symBinAddr: 0x100004EC8, symSize: 0x34 }
  - { offsetInCU: 0x18B33, offset: 0x18B33, size: 0x8, addend: 0x0, symName: __ZNSt3__16vectorIN2sf11VertexArrayENS_9allocatorIS2_EEE21_ConstructTransactionD1B8ue170006Ev, symObjAddr: 0x2538, symBinAddr: 0x100004EFC, symSize: 0x2C }
  - { offsetInCU: 0x18B5C, offset: 0x18B5C, size: 0x8, addend: 0x0, symName: __ZNSt3__16vectorIN2sf11VertexArrayENS_9allocatorIS2_EEE21_ConstructTransactionC2B8ue170006ERS5_m, symObjAddr: 0x2564, symBinAddr: 0x100004F28, symSize: 0x4C }
  - { offsetInCU: 0x18BA3, offset: 0x18BA3, size: 0x8, addend: 0x0, symName: __ZNSt3__19allocatorIN2sf11VertexArrayEE9constructB8ue170006IS2_JRKS2_EEEvPT_DpOT0_, symObjAddr: 0x25B0, symBinAddr: 0x100004F74, symSize: 0x30 }
  - { offsetInCU: 0x18BF8, offset: 0x18BF8, size: 0x8, addend: 0x0, symName: __ZN2sf11VertexArrayC1ERKS0_, symObjAddr: 0x25E0, symBinAddr: 0x100004FA4, symSize: 0x34 }
  - { offsetInCU: 0x18C2C, offset: 0x18C2C, size: 0x8, addend: 0x0, symName: __ZN2sf11VertexArrayC2ERKS0_, symObjAddr: 0x2614, symBinAddr: 0x100004FD8, symSize: 0x94 }
  - { offsetInCU: 0x18C60, offset: 0x18C60, size: 0x8, addend: 0x0, symName: __ZN2sf8DrawableC2ERKS0_, symObjAddr: 0x26A8, symBinAddr: 0x10000506C, symSize: 0x28 }
  - { offsetInCU: 0x18C94, offset: 0x18C94, size: 0x8, addend: 0x0, symName: __ZNSt3__16vectorIN2sf6VertexENS_9allocatorIS2_EEEC1ERKS5_, symObjAddr: 0x26D0, symBinAddr: 0x100005094, symSize: 0x34 }
  - { offsetInCU: 0x18CCE, offset: 0x18CCE, size: 0x8, addend: 0x0, symName: __ZN2sf8DrawableD1Ev, symObjAddr: 0x2704, symBinAddr: 0x1000050C8, symSize: 0x14 }
  - { offsetInCU: 0x18CF7, offset: 0x18CF7, size: 0x8, addend: 0x0, symName: __ZN2sf8DrawableD0Ev, symObjAddr: 0x2718, symBinAddr: 0x1000050DC, symSize: 0xC }
  - { offsetInCU: 0x18D20, offset: 0x18D20, size: 0x8, addend: 0x0, symName: __ZNSt3__16vectorIN2sf6VertexENS_9allocatorIS2_EEEC2ERKS5_, symObjAddr: 0x2724, symBinAddr: 0x1000050E8, symSize: 0x94 }
  - { offsetInCU: 0x18D64, offset: 0x18D64, size: 0x8, addend: 0x0, symName: __ZNSt3__116allocator_traitsINS_9allocatorIN2sf6VertexEEEE37select_on_container_copy_constructionB8ue170006IS4_vvEES4_RKS4_, symObjAddr: 0x27B8, symBinAddr: 0x10000517C, symSize: 0x10 }
  - { offsetInCU: 0x18D93, offset: 0x18D93, size: 0x8, addend: 0x0, symName: __ZNKSt3__16vectorIN2sf6VertexENS_9allocatorIS2_EEE7__allocB8ue170006Ev, symObjAddr: 0x27C8, symBinAddr: 0x10000518C, symSize: 0x28 }
  - { offsetInCU: 0x18DBD, offset: 0x18DBD, size: 0x8, addend: 0x0, symName: __ZNSt3__117__compressed_pairIPN2sf6VertexENS_9allocatorIS2_EEEC1B8ue170006IDnS5_EEOT_OT0_, symObjAddr: 0x27F0, symBinAddr: 0x1000051B4, symSize: 0x3C }
  - { offsetInCU: 0x18E14, offset: 0x18E14, size: 0x8, addend: 0x0, symName: __ZNSt3__16vectorIN2sf6VertexENS_9allocatorIS2_EEE16__init_with_sizeB8ue170006IPS2_S7_EEvT_T0_m, symObjAddr: 0x282C, symBinAddr: 0x1000051F0, symSize: 0xC0 }
  - { offsetInCU: 0x18E87, offset: 0x18E87, size: 0x8, addend: 0x0, symName: __ZNKSt3__117__compressed_pairIPN2sf6VertexENS_9allocatorIS2_EEE6secondB8ue170006Ev, symObjAddr: 0x28EC, symBinAddr: 0x1000052B0, symSize: 0x24 }
  - { offsetInCU: 0x18EAC, offset: 0x18EAC, size: 0x8, addend: 0x0, symName: __ZNKSt3__122__compressed_pair_elemINS_9allocatorIN2sf6VertexEEELi1ELb1EE5__getB8ue170006Ev, symObjAddr: 0x2910, symBinAddr: 0x1000052D4, symSize: 0x14 }
  - { offsetInCU: 0x18ED1, offset: 0x18ED1, size: 0x8, addend: 0x0, symName: __ZNSt3__117__compressed_pairIPN2sf6VertexENS_9allocatorIS2_EEEC2B8ue170006IDnS5_EEOT_OT0_, symObjAddr: 0x2924, symBinAddr: 0x1000052E8, symSize: 0x44 }
  - { offsetInCU: 0x18F28, offset: 0x18F28, size: 0x8, addend: 0x0, symName: __ZNSt3__122__compressed_pair_elemIPN2sf6VertexELi0ELb0EEC2B8ue170006IDnvEEOT_, symObjAddr: 0x2968, symBinAddr: 0x10000532C, symSize: 0x1C }
  - { offsetInCU: 0x18F69, offset: 0x18F69, size: 0x8, addend: 0x0, symName: __ZNSt3__122__compressed_pair_elemINS_9allocatorIN2sf6VertexEEELi1ELb1EEC2B8ue170006IS4_vEEOT_, symObjAddr: 0x2984, symBinAddr: 0x100005348, symSize: 0x18 }
  - { offsetInCU: 0x18FAA, offset: 0x18FAA, size: 0x8, addend: 0x0, symName: __ZNSt3__16vectorIN2sf6VertexENS_9allocatorIS2_EEE11__vallocateB8ue170006Em, symObjAddr: 0x29DC, symBinAddr: 0x1000053A0, symSize: 0xB4 }
  - { offsetInCU: 0x18FEC, offset: 0x18FEC, size: 0x8, addend: 0x0, symName: __ZNSt3__16vectorIN2sf6VertexENS_9allocatorIS2_EEE18__construct_at_endIPS2_S7_EEvT_T0_m, symObjAddr: 0x2A90, symBinAddr: 0x100005454, symSize: 0x94 }
  - { offsetInCU: 0x19061, offset: 0x19061, size: 0x8, addend: 0x0, symName: __ZNSt3__128__exception_guard_exceptionsINS_6vectorIN2sf6VertexENS_9allocatorIS3_EEE16__destroy_vectorEE10__completeB8ue170006Ev, symObjAddr: 0x2B24, symBinAddr: 0x1000054E8, symSize: 0x1C }
  - { offsetInCU: 0x19086, offset: 0x19086, size: 0x8, addend: 0x0, symName: __ZNSt3__128__exception_guard_exceptionsINS_6vectorIN2sf6VertexENS_9allocatorIS3_EEE16__destroy_vectorEED1B8ue170006Ev, symObjAddr: 0x2B40, symBinAddr: 0x100005504, symSize: 0x2C }
  - { offsetInCU: 0x190AF, offset: 0x190AF, size: 0x8, addend: 0x0, symName: __ZNSt3__128__exception_guard_exceptionsINS_6vectorIN2sf6VertexENS_9allocatorIS3_EEE16__destroy_vectorEEC1B8ue170006ES7_, symObjAddr: 0x2B6C, symBinAddr: 0x100005530, symSize: 0x34 }
  - { offsetInCU: 0x190E6, offset: 0x190E6, size: 0x8, addend: 0x0, symName: __ZNSt3__128__exception_guard_exceptionsINS_6vectorIN2sf6VertexENS_9allocatorIS3_EEE16__destroy_vectorEEC2B8ue170006ES7_, symObjAddr: 0x2BA0, symBinAddr: 0x100005564, symSize: 0x24 }
  - { offsetInCU: 0x1911C, offset: 0x1911C, size: 0x8, addend: 0x0, symName: __ZNKSt3__16vectorIN2sf6VertexENS_9allocatorIS2_EEE8max_sizeEv, symObjAddr: 0x2BC4, symBinAddr: 0x100005588, symSize: 0x74 }
  - { offsetInCU: 0x19143, offset: 0x19143, size: 0x8, addend: 0x0, symName: __ZNKSt3__16vectorIN2sf6VertexENS_9allocatorIS2_EEE20__throw_length_errorB8ue170006Ev, symObjAddr: 0x2C38, symBinAddr: 0x1000055FC, symSize: 0x1C }
  - { offsetInCU: 0x19168, offset: 0x19168, size: 0x8, addend: 0x0, symName: __ZNSt3__16vectorIN2sf6VertexENS_9allocatorIS2_EEE9__end_capB8ue170006Ev, symObjAddr: 0x2C94, symBinAddr: 0x100005658, symSize: 0x28 }
  - { offsetInCU: 0x1918D, offset: 0x1918D, size: 0x8, addend: 0x0, symName: __ZNKSt3__16vectorIN2sf6VertexENS_9allocatorIS2_EEE14__annotate_newB8ue170006Em, symObjAddr: 0x2CBC, symBinAddr: 0x100005680, symSize: 0xC8 }
  - { offsetInCU: 0x191C1, offset: 0x191C1, size: 0x8, addend: 0x0, symName: __ZNSt3__116allocator_traitsINS_9allocatorIN2sf6VertexEEEE8max_sizeB8ue170006IS4_vEEmRKS4_, symObjAddr: 0x2DB0, symBinAddr: 0x100005774, symSize: 0x24 }
  - { offsetInCU: 0x191EF, offset: 0x191EF, size: 0x8, addend: 0x0, symName: __ZNSt3__114numeric_limitsIlE3maxB8ue170006Ev, symObjAddr: 0x2DD4, symBinAddr: 0x100005798, symSize: 0x14 }
  - { offsetInCU: 0x1920D, offset: 0x1920D, size: 0x8, addend: 0x0, symName: __ZNKSt3__16__lessIvvEclB8ue170006ImmEEbRKT_RKT0_, symObjAddr: 0x2E3C, symBinAddr: 0x100005800, symSize: 0x34 }
  - { offsetInCU: 0x19260, offset: 0x19260, size: 0x8, addend: 0x0, symName: __ZNKSt3__19allocatorIN2sf6VertexEE8max_sizeB8ue170006Ev, symObjAddr: 0x2E70, symBinAddr: 0x100005834, symSize: 0x18 }
  - { offsetInCU: 0x19285, offset: 0x19285, size: 0x8, addend: 0x0, symName: __ZNSt3__123__libcpp_numeric_limitsIlLb1EE3maxB8ue170006Ev, symObjAddr: 0x2E88, symBinAddr: 0x10000584C, symSize: 0x8 }
  - { offsetInCU: 0x19299, offset: 0x19299, size: 0x8, addend: 0x0, symName: __ZNSt12length_errorC1B8ue170006EPKc, symObjAddr: 0x2EF4, symBinAddr: 0x1000058B8, symSize: 0x34 }
  - { offsetInCU: 0x192D0, offset: 0x192D0, size: 0x8, addend: 0x0, symName: __ZNSt12length_errorC2B8ue170006EPKc, symObjAddr: 0x2F28, symBinAddr: 0x1000058EC, symSize: 0x4C }
  - { offsetInCU: 0x19307, offset: 0x19307, size: 0x8, addend: 0x0, symName: __ZNSt3__19allocatorIN2sf6VertexEE8allocateB8ue170006Em, symObjAddr: 0x2F74, symBinAddr: 0x100005938, symSize: 0x8C }
  - { offsetInCU: 0x1933A, offset: 0x1933A, size: 0x8, addend: 0x0, symName: __ZNSt3__117__compressed_pairIPN2sf6VertexENS_9allocatorIS2_EEE5firstB8ue170006Ev, symObjAddr: 0x3080, symBinAddr: 0x100005A44, symSize: 0x24 }
  - { offsetInCU: 0x1935F, offset: 0x1935F, size: 0x8, addend: 0x0, symName: __ZNSt3__122__compressed_pair_elemIPN2sf6VertexELi0ELb0EE5__getB8ue170006Ev, symObjAddr: 0x30A4, symBinAddr: 0x100005A68, symSize: 0x14 }
  - { offsetInCU: 0x1939D, offset: 0x1939D, size: 0x8, addend: 0x0, symName: __ZNSt3__16vectorIN2sf6VertexENS_9allocatorIS2_EEE21_ConstructTransactionC1B8ue170006ERS5_m, symObjAddr: 0x30B8, symBinAddr: 0x100005A7C, symSize: 0x3C }
  - { offsetInCU: 0x193E4, offset: 0x193E4, size: 0x8, addend: 0x0, symName: __ZNSt3__16vectorIN2sf6VertexENS_9allocatorIS2_EEE21_ConstructTransactionD1B8ue170006Ev, symObjAddr: 0x3174, symBinAddr: 0x100005B38, symSize: 0x2C }
  - { offsetInCU: 0x1940D, offset: 0x1940D, size: 0x8, addend: 0x0, symName: __ZNSt3__16vectorIN2sf6VertexENS_9allocatorIS2_EEE21_ConstructTransactionC2B8ue170006ERS5_m, symObjAddr: 0x31A0, symBinAddr: 0x100005B64, symSize: 0x4C }
  - { offsetInCU: 0x1946D, offset: 0x1946D, size: 0x8, addend: 0x0, symName: __ZNSt3__14pairIPN2sf6VertexES3_EC1B8ue170006ERKS3_S6_, symObjAddr: 0x33F4, symBinAddr: 0x100005DB8, symSize: 0x3C }
  - { offsetInCU: 0x194B2, offset: 0x194B2, size: 0x8, addend: 0x0, symName: __ZNSt3__14pairIPN2sf6VertexES3_EC2B8ue170006ERKS3_S6_, symObjAddr: 0x3430, symBinAddr: 0x100005DF4, symSize: 0x34 }
  - { offsetInCU: 0x194F7, offset: 0x194F7, size: 0x8, addend: 0x0, symName: __ZNSt3__129_AllocatorDestroyRangeReverseINS_9allocatorIN2sf6VertexEEEPS3_EC1B8ue170006ERS4_RS5_S8_, symObjAddr: 0x34B0, symBinAddr: 0x100005E74, symSize: 0x44 }
  - { offsetInCU: 0x1954D, offset: 0x1954D, size: 0x8, addend: 0x0, symName: __ZNSt3__116allocator_traitsINS_9allocatorIN2sf6VertexEEEE9constructB8ue170006IS3_JRS3_EvEEvRS4_PT_DpOT0_, symObjAddr: 0x34F4, symBinAddr: 0x100005EB8, symSize: 0x34 }
  - { offsetInCU: 0x195A4, offset: 0x195A4, size: 0x8, addend: 0x0, symName: __ZNSt3__128__exception_guard_exceptionsINS_29_AllocatorDestroyRangeReverseINS_9allocatorIN2sf6VertexEEEPS4_EEE10__completeB8ue170006Ev, symObjAddr: 0x3528, symBinAddr: 0x100005EEC, symSize: 0x1C }
  - { offsetInCU: 0x195C9, offset: 0x195C9, size: 0x8, addend: 0x0, symName: __ZNSt3__128__exception_guard_exceptionsINS_29_AllocatorDestroyRangeReverseINS_9allocatorIN2sf6VertexEEEPS4_EEED1B8ue170006Ev, symObjAddr: 0x3544, symBinAddr: 0x100005F08, symSize: 0x2C }
  - { offsetInCU: 0x195F2, offset: 0x195F2, size: 0x8, addend: 0x0, symName: __ZNSt3__128__exception_guard_exceptionsINS_29_AllocatorDestroyRangeReverseINS_9allocatorIN2sf6VertexEEEPS4_EEEC1B8ue170006ES7_, symObjAddr: 0x3570, symBinAddr: 0x100005F34, symSize: 0x34 }
  - { offsetInCU: 0x1962A, offset: 0x1962A, size: 0x8, addend: 0x0, symName: __ZNSt3__128__exception_guard_exceptionsINS_29_AllocatorDestroyRangeReverseINS_9allocatorIN2sf6VertexEEEPS4_EEEC2B8ue170006ES7_, symObjAddr: 0x35A4, symBinAddr: 0x100005F68, symSize: 0x30 }
  - { offsetInCU: 0x19662, offset: 0x19662, size: 0x8, addend: 0x0, symName: __ZNSt3__129_AllocatorDestroyRangeReverseINS_9allocatorIN2sf6VertexEEEPS3_EC2B8ue170006ERS4_RS5_S8_, symObjAddr: 0x35D4, symBinAddr: 0x100005F98, symSize: 0x38 }
  - { offsetInCU: 0x196B8, offset: 0x196B8, size: 0x8, addend: 0x0, symName: __ZNSt3__19allocatorIN2sf6VertexEE9constructB8ue170006IS2_JRS2_EEEvPT_DpOT0_, symObjAddr: 0x360C, symBinAddr: 0x100005FD0, symSize: 0x30 }
  - { offsetInCU: 0x1970D, offset: 0x1970D, size: 0x8, addend: 0x0, symName: __ZNSt3__128__exception_guard_exceptionsINS_29_AllocatorDestroyRangeReverseINS_9allocatorIN2sf6VertexEEEPS4_EEED2B8ue170006Ev, symObjAddr: 0x363C, symBinAddr: 0x100006000, symSize: 0x48 }
  - { offsetInCU: 0x19736, offset: 0x19736, size: 0x8, addend: 0x0, symName: __ZNKSt3__129_AllocatorDestroyRangeReverseINS_9allocatorIN2sf6VertexEEEPS3_EclB8ue170006Ev, symObjAddr: 0x3684, symBinAddr: 0x100006048, symSize: 0x68 }
  - { offsetInCU: 0x1975B, offset: 0x1975B, size: 0x8, addend: 0x0, symName: __ZNSt3__116reverse_iteratorIPN2sf6VertexEEC1B8ue170006ES3_, symObjAddr: 0x375C, symBinAddr: 0x100006120, symSize: 0x34 }
  - { offsetInCU: 0x19792, offset: 0x19792, size: 0x8, addend: 0x0, symName: __ZNSt3__116reverse_iteratorIPN2sf6VertexEEppB8ue170006Ev, symObjAddr: 0x37FC, symBinAddr: 0x1000061C0, symSize: 0x20 }
  - { offsetInCU: 0x197B7, offset: 0x197B7, size: 0x8, addend: 0x0, symName: __ZNKSt3__116reverse_iteratorIPN2sf6VertexEE4baseB8ue170006Ev, symObjAddr: 0x381C, symBinAddr: 0x1000061E0, symSize: 0x18 }
  - { offsetInCU: 0x197E1, offset: 0x197E1, size: 0x8, addend: 0x0, symName: __ZNSt3__119__to_address_helperINS_16reverse_iteratorIPN2sf6VertexEEEvE6__callB8ue170006ERKS5_, symObjAddr: 0x3834, symBinAddr: 0x1000061F8, symSize: 0x4C }
  - { offsetInCU: 0x19804, offset: 0x19804, size: 0x8, addend: 0x0, symName: __ZNKSt3__116reverse_iteratorIPN2sf6VertexEEptB8ue170006Ev, symObjAddr: 0x3880, symBinAddr: 0x100006244, symSize: 0x24 }
  - { offsetInCU: 0x19829, offset: 0x19829, size: 0x8, addend: 0x0, symName: __ZNKSt3__116reverse_iteratorIPN2sf6VertexEEdeB8ue170006Ev, symObjAddr: 0x38A4, symBinAddr: 0x100006268, symSize: 0x28 }
  - { offsetInCU: 0x1985C, offset: 0x1985C, size: 0x8, addend: 0x0, symName: __ZNSt3__116reverse_iteratorIPN2sf6VertexEEC2B8ue170006ES3_, symObjAddr: 0x38CC, symBinAddr: 0x100006290, symSize: 0x28 }
  - { offsetInCU: 0x19893, offset: 0x19893, size: 0x8, addend: 0x0, symName: __ZNSt3__118__unwrap_iter_implIPN2sf6VertexELb1EE8__unwrapB8ue170006ES3_, symObjAddr: 0x38F4, symBinAddr: 0x1000062B8, symSize: 0x24 }
  - { offsetInCU: 0x198B6, offset: 0x198B6, size: 0x8, addend: 0x0, symName: __ZNSt3__118__unwrap_iter_implIPN2sf6VertexELb1EE8__rewrapB8ue170006ES3_S3_, symObjAddr: 0x3918, symBinAddr: 0x1000062DC, symSize: 0x58 }
  - { offsetInCU: 0x198E7, offset: 0x198E7, size: 0x8, addend: 0x0, symName: __ZNSt3__16vectorIN2sf6VertexENS_9allocatorIS2_EEE21_ConstructTransactionD2B8ue170006Ev, symObjAddr: 0x3970, symBinAddr: 0x100006334, symSize: 0x20 }
  - { offsetInCU: 0x19910, offset: 0x19910, size: 0x8, addend: 0x0, symName: __ZNSt3__128__exception_guard_exceptionsINS_6vectorIN2sf6VertexENS_9allocatorIS3_EEE16__destroy_vectorEED2B8ue170006Ev, symObjAddr: 0x3990, symBinAddr: 0x100006354, symSize: 0x48 }
  - { offsetInCU: 0x19939, offset: 0x19939, size: 0x8, addend: 0x0, symName: __ZNSt3__16vectorIN2sf11VertexArrayENS_9allocatorIS2_EEE21_ConstructTransactionD2B8ue170006Ev, symObjAddr: 0x39D8, symBinAddr: 0x10000639C, symSize: 0x20 }
  - { offsetInCU: 0x19961, offset: 0x19961, size: 0x8, addend: 0x0, symName: __ZNKSt3__16vectorIN2sf11VertexArrayENS_9allocatorIS2_EEE11__recommendB8ue170006Em, symObjAddr: 0x39F8, symBinAddr: 0x1000063BC, symSize: 0xB4 }
  - { offsetInCU: 0x199B5, offset: 0x199B5, size: 0x8, addend: 0x0, symName: __ZNSt3__114__split_bufferIN2sf11VertexArrayERNS_9allocatorIS2_EEEC1EmmS5_, symObjAddr: 0x3AAC, symBinAddr: 0x100006470, symSize: 0x44 }
  - { offsetInCU: 0x19A0A, offset: 0x19A0A, size: 0x8, addend: 0x0, symName: __ZNSt3__114__split_bufferIN2sf11VertexArrayERNS_9allocatorIS2_EEED1Ev, symObjAddr: 0x3C00, symBinAddr: 0x1000065C4, symSize: 0x2C }
  - { offsetInCU: 0x19A34, offset: 0x19A34, size: 0x8, addend: 0x0, symName: __ZNKSt3__16vectorIN2sf11VertexArrayENS_9allocatorIS2_EEE8max_sizeEv, symObjAddr: 0x3C2C, symBinAddr: 0x1000065F0, symSize: 0x74 }
  - { offsetInCU: 0x19A5B, offset: 0x19A5B, size: 0x8, addend: 0x0, symName: __ZNKSt3__16vectorIN2sf11VertexArrayENS_9allocatorIS2_EEE20__throw_length_errorB8ue170006Ev, symObjAddr: 0x3CA0, symBinAddr: 0x100006664, symSize: 0x1C }
  - { offsetInCU: 0x19A8A, offset: 0x19A8A, size: 0x8, addend: 0x0, symName: __ZNSt3__116allocator_traitsINS_9allocatorIN2sf11VertexArrayEEEE8max_sizeB8ue170006IS4_vEEmRKS4_, symObjAddr: 0x3CE8, symBinAddr: 0x1000066AC, symSize: 0x24 }
  - { offsetInCU: 0x19AB8, offset: 0x19AB8, size: 0x8, addend: 0x0, symName: __ZNKSt3__16vectorIN2sf11VertexArrayENS_9allocatorIS2_EEE7__allocB8ue170006Ev, symObjAddr: 0x3D0C, symBinAddr: 0x1000066D0, symSize: 0x28 }
  - { offsetInCU: 0x19ADD, offset: 0x19ADD, size: 0x8, addend: 0x0, symName: __ZNKSt3__19allocatorIN2sf11VertexArrayEE8max_sizeB8ue170006Ev, symObjAddr: 0x3D34, symBinAddr: 0x1000066F8, symSize: 0x18 }
  - { offsetInCU: 0x19B02, offset: 0x19B02, size: 0x8, addend: 0x0, symName: __ZNKSt3__117__compressed_pairIPN2sf11VertexArrayENS_9allocatorIS2_EEE6secondB8ue170006Ev, symObjAddr: 0x3D4C, symBinAddr: 0x100006710, symSize: 0x24 }
  - { offsetInCU: 0x19B27, offset: 0x19B27, size: 0x8, addend: 0x0, symName: __ZNKSt3__122__compressed_pair_elemINS_9allocatorIN2sf11VertexArrayEEELi1ELb1EE5__getB8ue170006Ev, symObjAddr: 0x3D70, symBinAddr: 0x100006734, symSize: 0x14 }
  - { offsetInCU: 0x19B4C, offset: 0x19B4C, size: 0x8, addend: 0x0, symName: __ZNSt3__114__split_bufferIN2sf11VertexArrayERNS_9allocatorIS2_EEEC2EmmS5_, symObjAddr: 0x3DD8, symBinAddr: 0x10000679C, symSize: 0xE0 }
  - { offsetInCU: 0x19BBF, offset: 0x19BBF, size: 0x8, addend: 0x0, symName: __ZNSt3__117__compressed_pairIPN2sf11VertexArrayERNS_9allocatorIS2_EEEC1B8ue170006IDnS6_EEOT_OT0_, symObjAddr: 0x3EB8, symBinAddr: 0x10000687C, symSize: 0x3C }
  - { offsetInCU: 0x19C16, offset: 0x19C16, size: 0x8, addend: 0x0, symName: __ZNSt3__114__split_bufferIN2sf11VertexArrayERNS_9allocatorIS2_EEE7__allocB8ue170006Ev, symObjAddr: 0x3F34, symBinAddr: 0x1000068F8, symSize: 0x28 }
  - { offsetInCU: 0x19C3B, offset: 0x19C3B, size: 0x8, addend: 0x0, symName: __ZNSt3__114__split_bufferIN2sf11VertexArrayERNS_9allocatorIS2_EEE9__end_capB8ue170006Ev, symObjAddr: 0x3F5C, symBinAddr: 0x100006920, symSize: 0x28 }
  - { offsetInCU: 0x19C60, offset: 0x19C60, size: 0x8, addend: 0x0, symName: __ZNSt3__117__compressed_pairIPN2sf11VertexArrayERNS_9allocatorIS2_EEEC2B8ue170006IDnS6_EEOT_OT0_, symObjAddr: 0x3F84, symBinAddr: 0x100006948, symSize: 0x48 }
  - { offsetInCU: 0x19CB7, offset: 0x19CB7, size: 0x8, addend: 0x0, symName: __ZNSt3__122__compressed_pair_elemIRNS_9allocatorIN2sf11VertexArrayEEELi1ELb0EEC2B8ue170006IS5_vEEOT_, symObjAddr: 0x3FCC, symBinAddr: 0x100006990, symSize: 0x20 }
  - { offsetInCU: 0x19CF8, offset: 0x19CF8, size: 0x8, addend: 0x0, symName: __ZNSt3__19allocatorIN2sf11VertexArrayEE8allocateB8ue170006Em, symObjAddr: 0x3FEC, symBinAddr: 0x1000069B0, symSize: 0x8C }
  - { offsetInCU: 0x19D2B, offset: 0x19D2B, size: 0x8, addend: 0x0, symName: __ZNSt3__117__compressed_pairIPN2sf11VertexArrayERNS_9allocatorIS2_EEE6secondB8ue170006Ev, symObjAddr: 0x4078, symBinAddr: 0x100006A3C, symSize: 0x28 }
  - { offsetInCU: 0x19D50, offset: 0x19D50, size: 0x8, addend: 0x0, symName: __ZNSt3__122__compressed_pair_elemIRNS_9allocatorIN2sf11VertexArrayEEELi1ELb0EE5__getB8ue170006Ev, symObjAddr: 0x40A0, symBinAddr: 0x100006A64, symSize: 0x18 }
  - { offsetInCU: 0x19D75, offset: 0x19D75, size: 0x8, addend: 0x0, symName: __ZNSt3__117__compressed_pairIPN2sf11VertexArrayERNS_9allocatorIS2_EEE5firstB8ue170006Ev, symObjAddr: 0x40B8, symBinAddr: 0x100006A7C, symSize: 0x24 }
  - { offsetInCU: 0x19D9A, offset: 0x19D9A, size: 0x8, addend: 0x0, symName: __ZNSt3__116reverse_iteratorIPN2sf11VertexArrayEEC1B8ue170006ES3_, symObjAddr: 0x4210, symBinAddr: 0x100006BD4, symSize: 0x34 }
  - { offsetInCU: 0x19DD1, offset: 0x19DD1, size: 0x8, addend: 0x0, symName: __ZNKSt3__116reverse_iteratorIPN2sf11VertexArrayEE4baseB8ue170006Ev, symObjAddr: 0x4244, symBinAddr: 0x100006C08, symSize: 0x18 }
  - { offsetInCU: 0x19DF6, offset: 0x19DF6, size: 0x8, addend: 0x0, symName: __ZNKSt3__16vectorIN2sf11VertexArrayENS_9allocatorIS2_EEE14__annotate_newB8ue170006Em, symObjAddr: 0x4298, symBinAddr: 0x100006C5C, symSize: 0xC8 }
  - { offsetInCU: 0x19E2A, offset: 0x19E2A, size: 0x8, addend: 0x0, symName: __ZNSt3__129_AllocatorDestroyRangeReverseINS_9allocatorIN2sf11VertexArrayEEENS_16reverse_iteratorIPS3_EEEC1B8ue170006ERS4_RS7_SA_, symObjAddr: 0x43AC, symBinAddr: 0x100006D70, symSize: 0x44 }
  - { offsetInCU: 0x19E80, offset: 0x19E80, size: 0x8, addend: 0x0, symName: __ZNKSt3__116reverse_iteratorIPN2sf11VertexArrayEEdeB8ue170006Ev, symObjAddr: 0x445C, symBinAddr: 0x100006E20, symSize: 0x28 }
  - { offsetInCU: 0x19EB3, offset: 0x19EB3, size: 0x8, addend: 0x0, symName: __ZNSt3__116reverse_iteratorIPN2sf11VertexArrayEEppB8ue170006Ev, symObjAddr: 0x4484, symBinAddr: 0x100006E48, symSize: 0x20 }
  - { offsetInCU: 0x19ED8, offset: 0x19ED8, size: 0x8, addend: 0x0, symName: __ZNSt3__128__exception_guard_exceptionsINS_29_AllocatorDestroyRangeReverseINS_9allocatorIN2sf11VertexArrayEEENS_16reverse_iteratorIPS4_EEEEE10__completeB8ue170006Ev, symObjAddr: 0x44A4, symBinAddr: 0x100006E68, symSize: 0x1C }
  - { offsetInCU: 0x19EFD, offset: 0x19EFD, size: 0x8, addend: 0x0, symName: __ZNSt3__128__exception_guard_exceptionsINS_29_AllocatorDestroyRangeReverseINS_9allocatorIN2sf11VertexArrayEEENS_16reverse_iteratorIPS4_EEEEED1B8ue170006Ev, symObjAddr: 0x44C0, symBinAddr: 0x100006E84, symSize: 0x2C }
  - { offsetInCU: 0x19F26, offset: 0x19F26, size: 0x8, addend: 0x0, symName: __ZNSt3__128__exception_guard_exceptionsINS_29_AllocatorDestroyRangeReverseINS_9allocatorIN2sf11VertexArrayEEENS_16reverse_iteratorIPS4_EEEEEC1B8ue170006ES9_, symObjAddr: 0x44EC, symBinAddr: 0x100006EB0, symSize: 0x34 }
  - { offsetInCU: 0x19F5E, offset: 0x19F5E, size: 0x8, addend: 0x0, symName: __ZNSt3__128__exception_guard_exceptionsINS_29_AllocatorDestroyRangeReverseINS_9allocatorIN2sf11VertexArrayEEENS_16reverse_iteratorIPS4_EEEEEC2B8ue170006ES9_, symObjAddr: 0x4520, symBinAddr: 0x100006EE4, symSize: 0x30 }
  - { offsetInCU: 0x19F96, offset: 0x19F96, size: 0x8, addend: 0x0, symName: __ZNSt3__129_AllocatorDestroyRangeReverseINS_9allocatorIN2sf11VertexArrayEEENS_16reverse_iteratorIPS3_EEEC2B8ue170006ERS4_RS7_SA_, symObjAddr: 0x4550, symBinAddr: 0x100006F14, symSize: 0x38 }
  - { offsetInCU: 0x19FF1, offset: 0x19FF1, size: 0x8, addend: 0x0, symName: __ZNSt3__119__to_address_helperINS_16reverse_iteratorIPN2sf11VertexArrayEEEvE6__callB8ue170006ERKS5_, symObjAddr: 0x4588, symBinAddr: 0x100006F4C, symSize: 0x4C }
  - { offsetInCU: 0x1A014, offset: 0x1A014, size: 0x8, addend: 0x0, symName: __ZNKSt3__116reverse_iteratorIPN2sf11VertexArrayEEptB8ue170006Ev, symObjAddr: 0x45D4, symBinAddr: 0x100006F98, symSize: 0x24 }
  - { offsetInCU: 0x1A039, offset: 0x1A039, size: 0x8, addend: 0x0, symName: __ZNSt3__128__exception_guard_exceptionsINS_29_AllocatorDestroyRangeReverseINS_9allocatorIN2sf11VertexArrayEEENS_16reverse_iteratorIPS4_EEEEED2B8ue170006Ev, symObjAddr: 0x45F8, symBinAddr: 0x100006FBC, symSize: 0x48 }
  - { offsetInCU: 0x1A062, offset: 0x1A062, size: 0x8, addend: 0x0, symName: __ZNKSt3__129_AllocatorDestroyRangeReverseINS_9allocatorIN2sf11VertexArrayEEENS_16reverse_iteratorIPS3_EEEclB8ue170006Ev, symObjAddr: 0x4640, symBinAddr: 0x100007004, symSize: 0xB4 }
  - { offsetInCU: 0x1A088, offset: 0x1A088, size: 0x8, addend: 0x0, symName: __ZNSt3__116reverse_iteratorINS0_IPN2sf11VertexArrayEEEEC1B8ue170006ES4_, symObjAddr: 0x4764, symBinAddr: 0x100007128, symSize: 0x3C }
  - { offsetInCU: 0x1A0BF, offset: 0x1A0BF, size: 0x8, addend: 0x0, symName: __ZNSt3__116reverse_iteratorINS0_IPN2sf11VertexArrayEEEEppB8ue170006Ev, symObjAddr: 0x4824, symBinAddr: 0x1000071E8, symSize: 0x30 }
  - { offsetInCU: 0x1A0E4, offset: 0x1A0E4, size: 0x8, addend: 0x0, symName: __ZNKSt3__116reverse_iteratorINS0_IPN2sf11VertexArrayEEEE4baseB8ue170006Ev, symObjAddr: 0x4854, symBinAddr: 0x100007218, symSize: 0x24 }
  - { offsetInCU: 0x1A10E, offset: 0x1A10E, size: 0x8, addend: 0x0, symName: __ZNSt3__119__to_address_helperINS_16reverse_iteratorINS1_IPN2sf11VertexArrayEEEEEvE6__callB8ue170006ERKS6_, symObjAddr: 0x4878, symBinAddr: 0x10000723C, symSize: 0x4C }
  - { offsetInCU: 0x1A131, offset: 0x1A131, size: 0x8, addend: 0x0, symName: __ZNKSt3__116reverse_iteratorINS0_IPN2sf11VertexArrayEEEEptB8ue170006Ev, symObjAddr: 0x48C4, symBinAddr: 0x100007288, symSize: 0x24 }
  - { offsetInCU: 0x1A156, offset: 0x1A156, size: 0x8, addend: 0x0, symName: __ZNKSt3__116reverse_iteratorINS0_IPN2sf11VertexArrayEEEEdeB8ue170006Ev, symObjAddr: 0x48E8, symBinAddr: 0x1000072AC, symSize: 0x34 }
  - { offsetInCU: 0x1A189, offset: 0x1A189, size: 0x8, addend: 0x0, symName: __ZNSt3__116reverse_iteratorIPN2sf11VertexArrayEEmmB8ue170006Ev, symObjAddr: 0x491C, symBinAddr: 0x1000072E0, symSize: 0x20 }
  - { offsetInCU: 0x1A1AE, offset: 0x1A1AE, size: 0x8, addend: 0x0, symName: __ZNSt3__116reverse_iteratorINS0_IPN2sf11VertexArrayEEEEC2B8ue170006ES4_, symObjAddr: 0x493C, symBinAddr: 0x100007300, symSize: 0x2C }
  - { offsetInCU: 0x1A1E5, offset: 0x1A1E5, size: 0x8, addend: 0x0, symName: __ZNSt3__116reverse_iteratorIPN2sf11VertexArrayEEC2B8ue170006ES3_, symObjAddr: 0x4968, symBinAddr: 0x10000732C, symSize: 0x28 }
  - { offsetInCU: 0x1A21C, offset: 0x1A21C, size: 0x8, addend: 0x0, symName: __ZNSt3__114__split_bufferIN2sf11VertexArrayERNS_9allocatorIS2_EEED2Ev, symObjAddr: 0x4990, symBinAddr: 0x100007354, symSize: 0x80 }
  - { offsetInCU: 0x1A247, offset: 0x1A247, size: 0x8, addend: 0x0, symName: __ZNSt3__114__split_bufferIN2sf11VertexArrayERNS_9allocatorIS2_EEE5clearB8ue170006Ev, symObjAddr: 0x4A10, symBinAddr: 0x1000073D4, symSize: 0x28 }
  - { offsetInCU: 0x1A26C, offset: 0x1A26C, size: 0x8, addend: 0x0, symName: __ZNKSt3__114__split_bufferIN2sf11VertexArrayERNS_9allocatorIS2_EEE8capacityB8ue170006Ev, symObjAddr: 0x4A38, symBinAddr: 0x1000073FC, symSize: 0x40 }
  - { offsetInCU: 0x1A291, offset: 0x1A291, size: 0x8, addend: 0x0, symName: __ZNSt3__114__split_bufferIN2sf11VertexArrayERNS_9allocatorIS2_EEE17__destruct_at_endB8ue170006EPS2_, symObjAddr: 0x4A78, symBinAddr: 0x10000743C, symSize: 0x2C }
  - { offsetInCU: 0x1A2C3, offset: 0x1A2C3, size: 0x8, addend: 0x0, symName: __ZNSt3__114__split_bufferIN2sf11VertexArrayERNS_9allocatorIS2_EEE17__destruct_at_endB8ue170006EPS2_NS_17integral_constantIbLb0EEE, symObjAddr: 0x4AA4, symBinAddr: 0x100007468, symSize: 0x94 }
  - { offsetInCU: 0x1A303, offset: 0x1A303, size: 0x8, addend: 0x0, symName: __ZNKSt3__114__split_bufferIN2sf11VertexArrayERNS_9allocatorIS2_EEE9__end_capB8ue170006Ev, symObjAddr: 0x4B38, symBinAddr: 0x1000074FC, symSize: 0x28 }
  - { offsetInCU: 0x1A328, offset: 0x1A328, size: 0x8, addend: 0x0, symName: __ZNKSt3__117__compressed_pairIPN2sf11VertexArrayERNS_9allocatorIS2_EEE5firstB8ue170006Ev, symObjAddr: 0x4B60, symBinAddr: 0x100007524, symSize: 0x24 }
  - { offsetInCU: 0x1A34D, offset: 0x1A34D, size: 0x8, addend: 0x0, symName: __ZNSt3__16vectorIN2sf11VertexArrayENS_9allocatorIS2_EEE11__make_iterB8ue170006EPS2_, symObjAddr: 0x4B84, symBinAddr: 0x100007548, symSize: 0x30 }
  - { offsetInCU: 0x1A381, offset: 0x1A381, size: 0x8, addend: 0x0, symName: __ZNSt3__111__wrap_iterIPN2sf11VertexArrayEEC1B8ue170006ES3_, symObjAddr: 0x4BB4, symBinAddr: 0x100007578, symSize: 0x34 }
  - { offsetInCU: 0x1A3B8, offset: 0x1A3B8, size: 0x8, addend: 0x0, symName: __ZNSt3__111__wrap_iterIPN2sf11VertexArrayEEC2B8ue170006ES3_, symObjAddr: 0x4BE8, symBinAddr: 0x1000075AC, symSize: 0x20 }
  - { offsetInCU: 0x1A3EF, offset: 0x1A3EF, size: 0x8, addend: 0x0, symName: __ZNKSt3__111__wrap_iterIPN2sf11VertexArrayEE4baseB8ue170006Ev, symObjAddr: 0x4C50, symBinAddr: 0x100007614, symSize: 0x18 }
...
