---
triple:          'arm64-apple-darwin'
binary-path:     oliveAni
relocations:
  - { offsetInCU: 0x1230E, offset: 0x1230E, size: 0x8, addend: 0x0, symName: __ZNSt3__1neB8ue170006IP12EllipseShapeEEbRKNS_11__wrap_iterIT_EES7_, symObjAddr: 0x650, symBinAddr: 0x100003C34, symSize: 0x34 }
  - { offsetInCU: 0x12351, offset: 0x12351, size: 0x8, addend: 0x0, symName: __ZNSt3__119__libcpp_deallocateB8ue170006EPvmm, symObjAddr: 0xBD4, symBinAddr: 0x1000041B8, symSize: 0x30 }
  - { offsetInCU: 0x12399, offset: 0x12399, size: 0x8, addend: 0x0, symName: __ZNSt3__127__do_deallocate_handle_sizeB8ue170006IJEEEvPvmDpT_, symObjAddr: 0xC10, symBinAddr: 0x1000041F4, symSize: 0x28 }
  - { offsetInCU: 0x123D7, offset: 0x123D7, size: 0x8, addend: 0x0, symName: __ZNSt3__124__libcpp_operator_deleteB8ue170006IJPvEEEvDpT_, symObjAddr: 0xC38, symBinAddr: 0x10000421C, symSize: 0x24 }
  - { offsetInCU: 0x1240C, offset: 0x1240C, size: 0x8, addend: 0x0, symName: __ZNSt3__1eqB8ue170006IP12EllipseShapeEEbRKNS_11__wrap_iterIT_EES7_, symObjAddr: 0xCCC, symBinAddr: 0x1000042B0, symSize: 0x48 }
  - { offsetInCU: 0x1244F, offset: 0x1244F, size: 0x8, addend: 0x0, symName: __ZNSt3__112__to_addressB8ue170006I12EllipseShapeEEPT_S3_, symObjAddr: 0x124C, symBinAddr: 0x100004830, symSize: 0x14 }
  - { offsetInCU: 0x12484, offset: 0x12484, size: 0x8, addend: 0x0, symName: __ZNSt3__122__make_exception_guardB8ue170006INS_6vectorIN2sf6VertexENS_9allocatorIS3_EEE16__destroy_vectorEEENS_28__exception_guard_exceptionsIT_EES9_, symObjAddr: 0x1CE0, symBinAddr: 0x1000052C4, symSize: 0x40 }
  - { offsetInCU: 0x124B9, offset: 0x124B9, size: 0x8, addend: 0x0, symName: __ZNSt3__119__allocate_at_leastB8ue170006INS_9allocatorIN2sf6VertexEEEEENS_19__allocation_resultINS_16allocator_traitsIT_E7pointerEEERS7_m, symObjAddr: 0x1FD0, symBinAddr: 0x1000055B4, symSize: 0x40 }
  - { offsetInCU: 0x124FC, offset: 0x124FC, size: 0x8, addend: 0x0, symName: __ZNSt3__13minB8ue170006ImEERKT_S3_S3_, symObjAddr: 0x2128, symBinAddr: 0x10000570C, symSize: 0x2C }
  - { offsetInCU: 0x12740, offset: 0x12740, size: 0x8, addend: 0x0, symName: __ZNSt3__13minB8ue170006ImNS_6__lessIvvEEEERKT_S5_S5_T0_, symObjAddr: 0x218C, symBinAddr: 0x100005770, symSize: 0x54 }
  - { offsetInCU: 0x127DF, offset: 0x127DF, size: 0x8, addend: 0x0, symName: __ZNSt3__120__throw_length_errorB8ue170006EPKc, symObjAddr: 0x2234, symBinAddr: 0x100005818, symSize: 0x64 }
  - { offsetInCU: 0x12809, offset: 0x12809, size: 0x8, addend: 0x0, symName: __ZNSt3__117__libcpp_allocateB8ue170006Emm, symObjAddr: 0x23A8, symBinAddr: 0x10000598C, symSize: 0x28 }
  - { offsetInCU: 0x12846, offset: 0x12846, size: 0x8, addend: 0x0, symName: __ZNSt3__121__libcpp_operator_newB8ue170006IJmEEEPvDpT_, symObjAddr: 0x23D0, symBinAddr: 0x1000059B4, symSize: 0x24 }
  - { offsetInCU: 0x1287F, offset: 0x1287F, size: 0x8, addend: 0x0, symName: __ZNSt3__112__to_addressB8ue170006IN2sf6VertexEEEPT_S4_, symObjAddr: 0x24EC, symBinAddr: 0x100005AD0, symSize: 0x14 }
  - { offsetInCU: 0x128B4, offset: 0x128B4, size: 0x8, addend: 0x0, symName: __ZNSt3__130__uninitialized_allocator_copyB8ue170006INS_9allocatorIN2sf6VertexEEEPS3_S5_S5_EET2_RT_T0_T1_S6_, symObjAddr: 0x259C, symBinAddr: 0x100005B80, symSize: 0x80 }
  - { offsetInCU: 0x12951, offset: 0x12951, size: 0x8, addend: 0x0, symName: __ZNSt3__114__unwrap_rangeB8ue170006IPN2sf6VertexES3_EENS_4pairIT0_S5_EET_S7_, symObjAddr: 0x2694, symBinAddr: 0x100005C78, symSize: 0x60 }
  - { offsetInCU: 0x1299D, offset: 0x1299D, size: 0x8, addend: 0x0, symName: __ZNSt3__135__uninitialized_allocator_copy_implB8ue170006INS_9allocatorIN2sf6VertexEEES3_S3_S3_LPv0EEEPT2_RT_PT0_SB_S7_, symObjAddr: 0x26F4, symBinAddr: 0x100005CD8, symSize: 0x38 }
  - { offsetInCU: 0x12A1E, offset: 0x12A1E, size: 0x8, addend: 0x0, symName: __ZNSt3__113__unwrap_iterB8ue170006IPN2sf6VertexENS_18__unwrap_iter_implIS3_Lb1EEELi0EEEDTclsrT0_8__unwrapclsr3stdE7declvalIT_EEEES7_, symObjAddr: 0x272C, symBinAddr: 0x100005D10, symSize: 0x24 }
  - { offsetInCU: 0x12A62, offset: 0x12A62, size: 0x8, addend: 0x0, symName: __ZNSt3__113__rewrap_iterB8ue170006IPN2sf6VertexES3_NS_18__unwrap_iter_implIS3_Lb1EEEEET_S6_T0_, symObjAddr: 0x2750, symBinAddr: 0x100005D34, symSize: 0x3C }
  - { offsetInCU: 0x12AB7, offset: 0x12AB7, size: 0x8, addend: 0x0, symName: __ZNSt3__19make_pairB8ue170006IPN2sf6VertexES3_EENS_4pairINS_18__unwrap_ref_decayIT_E4typeENS5_IT0_E4typeEEEOS6_OS9_, symObjAddr: 0x278C, symBinAddr: 0x100005D70, symSize: 0x38 }
  - { offsetInCU: 0x12C09, offset: 0x12C09, size: 0x8, addend: 0x0, symName: __ZNSt3__14copyB8ue170006IPN2sf6VertexES3_EET0_T_S5_S4_, symObjAddr: 0x2834, symBinAddr: 0x100005E18, symSize: 0x40 }
  - { offsetInCU: 0x12C63, offset: 0x12C63, size: 0x8, addend: 0x0, symName: __ZNSt3__16__copyB8ue170006INS_17_ClassicAlgPolicyEPN2sf6VertexES4_S4_EENS_4pairIT0_T2_EES6_T1_S7_, symObjAddr: 0x2874, symBinAddr: 0x100005E58, symSize: 0x44 }
  - { offsetInCU: 0x12CCF, offset: 0x12CCF, size: 0x8, addend: 0x0, symName: __ZNSt3__123__dispatch_copy_or_moveB8ue170006INS_17_ClassicAlgPolicyENS_11__copy_loopIS1_EENS_14__copy_trivialEPN2sf6VertexES7_S7_EENS_4pairIT2_T4_EES9_T3_SA_, symObjAddr: 0x28B8, symBinAddr: 0x100005E9C, symSize: 0x44 }
  - { offsetInCU: 0x12D4D, offset: 0x12D4D, size: 0x8, addend: 0x0, symName: __ZNSt3__121__unwrap_and_dispatchB8ue170006INS_10__overloadINS_11__copy_loopINS_17_ClassicAlgPolicyEEENS_14__copy_trivialEEEPN2sf6VertexES9_S9_Li0EEENS_4pairIT0_T2_EESB_T1_SC_, symObjAddr: 0x28FC, symBinAddr: 0x100005EE0, symSize: 0xB4 }
  - { offsetInCU: 0x12E21, offset: 0x12E21, size: 0x8, addend: 0x0, symName: __ZNSt3__114__rewrap_rangeB8ue170006IPN2sf6VertexES3_EET_S4_T0_, symObjAddr: 0x29F8, symBinAddr: 0x100005FDC, symSize: 0x2C }
  - { offsetInCU: 0x12E6D, offset: 0x12E6D, size: 0x8, addend: 0x0, symName: __ZNSt3__119__copy_trivial_implB8ue170006IN2sf6VertexES2_EENS_4pairIPT_PT0_EES5_S5_S7_, symObjAddr: 0x2A24, symBinAddr: 0x100006008, symSize: 0x88 }
  - { offsetInCU: 0x12ED5, offset: 0x12ED5, size: 0x8, addend: 0x0, symName: __ZNSt3__119__constexpr_memmoveB8ue170006IN2sf6VertexES2_Li0EEEPT_S4_PT0_NS_15__element_countE, symObjAddr: 0x2AAC, symBinAddr: 0x100006090, symSize: 0x68 }
  - { offsetInCU: 0x12F43, offset: 0x12F43, size: 0x8, addend: 0x0, symName: __ZNSt3__19make_pairB8ue170006IRPN2sf6VertexES3_EENS_4pairINS_18__unwrap_ref_decayIT_E4typeENS6_IT0_E4typeEEEOS7_OSA_, symObjAddr: 0x2B14, symBinAddr: 0x1000060F8, symSize: 0x38 }
  - { offsetInCU: 0x12FE5, offset: 0x12FE5, size: 0x8, addend: 0x0, symName: __ZNSt3__13maxB8ue170006ImEERKT_S3_S3_, symObjAddr: 0x32FC, symBinAddr: 0x1000068E0, symSize: 0x2C }
  - { offsetInCU: 0x13028, offset: 0x13028, size: 0x8, addend: 0x0, symName: __ZNSt3__13maxB8ue170006ImNS_6__lessIvvEEEERKT_S5_S5_T0_, symObjAddr: 0x33CC, symBinAddr: 0x1000069B0, symSize: 0x54 }
  - { offsetInCU: 0x13082, offset: 0x13082, size: 0x8, addend: 0x0, symName: __ZNSt3__119__allocate_at_leastB8ue170006INS_9allocatorI12EllipseShapeEEEENS_19__allocation_resultINS_16allocator_traitsIT_E7pointerEEERS6_m, symObjAddr: 0x353C, symBinAddr: 0x100006B20, symSize: 0x40 }
  - { offsetInCU: 0x130C5, offset: 0x130C5, size: 0x8, addend: 0x0, symName: __ZNSt3__142__uninitialized_allocator_move_if_noexceptB8ue170006INS_9allocatorI12EllipseShapeEENS_16reverse_iteratorIPS2_EES6_S6_EET2_RT_T0_T1_S7_, symObjAddr: 0x36F4, symBinAddr: 0x100006CD8, symSize: 0x12C }
  - { offsetInCU: 0x13165, offset: 0x13165, size: 0x8, addend: 0x0, symName: __ZNSt3__14swapB8ue170006IP12EllipseShapeEENS_9enable_ifIXaasr21is_move_constructibleIT_EE5valuesr18is_move_assignableIS4_EE5valueEvE4typeERS4_S7_, symObjAddr: 0x386C, symBinAddr: 0x100006E50, symSize: 0x3C }
  - { offsetInCU: 0x131B6, offset: 0x131B6, size: 0x8, addend: 0x0, symName: __ZNSt3__122__make_exception_guardB8ue170006INS_29_AllocatorDestroyRangeReverseINS_9allocatorI12EllipseShapeEENS_16reverse_iteratorIPS3_EEEEEENS_28__exception_guard_exceptionsIT_EESA_, symObjAddr: 0x3970, symBinAddr: 0x100006F54, symSize: 0x4C }
  - { offsetInCU: 0x131EC, offset: 0x131EC, size: 0x8, addend: 0x0, symName: __ZNSt3__1neB8ue170006IP12EllipseShapeS2_EEbRKNS_16reverse_iteratorIT_EERKNS3_IT0_EE, symObjAddr: 0x3A00, symBinAddr: 0x100006FE4, symSize: 0x48 }
  - { offsetInCU: 0x13238, offset: 0x13238, size: 0x8, addend: 0x0, symName: __ZNSt3__112__to_addressB8ue170006INS_16reverse_iteratorIP12EllipseShapeEEvEEu7__decayIDTclsr19__to_address_helperIT_EE6__callclsr3stdE7declvalIRKS5_EEEEES7_, symObjAddr: 0x3A48, symBinAddr: 0x10000702C, symSize: 0x24 }
  - { offsetInCU: 0x13297, offset: 0x13297, size: 0x8, addend: 0x0, symName: __ZNSt3__119__allocator_destroyB8ue170006INS_9allocatorI12EllipseShapeEENS_16reverse_iteratorINS4_IPS2_EEEES7_EEvRT_T0_T1_, symObjAddr: 0x3CF8, symBinAddr: 0x1000072DC, symSize: 0x70 }
  - { offsetInCU: 0x132FC, offset: 0x132FC, size: 0x8, addend: 0x0, symName: __ZNSt3__1neB8ue170006INS_16reverse_iteratorIP12EllipseShapeEES4_EEbRKNS1_IT_EERKNS1_IT0_EE, symObjAddr: 0x3DA4, symBinAddr: 0x100007388, symSize: 0x60 }
  - { offsetInCU: 0x13348, offset: 0x13348, size: 0x8, addend: 0x0, symName: __ZNSt3__112__to_addressB8ue170006INS_16reverse_iteratorINS1_IP12EllipseShapeEEEEvEEu7__decayIDTclsr19__to_address_helperIT_EE6__callclsr3stdE7declvalIRKS6_EEEEES8_, symObjAddr: 0x3E04, symBinAddr: 0x1000073E8, symSize: 0x24 }
  - { offsetInCU: 0x137B2, offset: 0x137B2, size: 0x8, addend: 0x0, symName: __ZSt28__throw_bad_array_new_lengthB8ue170006v, symObjAddr: 0x2374, symBinAddr: 0x100005958, symSize: 0x34 }
  - { offsetInCU: 0x145A7, offset: 0x145A7, size: 0x8, addend: 0x0, symName: __ZNK12EllipseShape8getPointEm, symObjAddr: 0x7EC, symBinAddr: 0x100003DD0, symSize: 0xCC }
  - { offsetInCU: 0x145CA, offset: 0x145CA, size: 0x8, addend: 0x0, symName: __ZZNK12EllipseShape8getPointEmE2pi, symObjAddr: 0x44A0, symBinAddr: 0x100007C34, symSize: 0x0 }
  - { offsetInCU: 0x14818, offset: 0x14818, size: 0x8, addend: 0x0, symName: __ZNSt3__16vectorI12EllipseShapeNS_9allocatorIS1_EEE26__swap_out_circular_bufferERNS_14__split_bufferIS1_RS3_EE, symObjAddr: 0x3144, symBinAddr: 0x100006728, symSize: 0x110 }
  - { offsetInCU: 0x16BC0, offset: 0x16BC0, size: 0x8, addend: 0x0, symName: _main, symObjAddr: 0x0, symBinAddr: 0x1000035E4, symSize: 0x418 }
  - { offsetInCU: 0x16C93, offset: 0x16C93, size: 0x8, addend: 0x0, symName: __ZN2sf7Vector2IfEC1Eff, symObjAddr: 0x418, symBinAddr: 0x1000039FC, symSize: 0x3C }
  - { offsetInCU: 0x16CDA, offset: 0x16CDA, size: 0x8, addend: 0x0, symName: __ZN12EllipseShapeC1ERKN2sf7Vector2IfEE, symObjAddr: 0x454, symBinAddr: 0x100003A38, symSize: 0x34 }
  - { offsetInCU: 0x16D10, offset: 0x16D10, size: 0x8, addend: 0x0, symName: __ZN12EllipseShape9setRadiusERKN2sf7Vector2IfEE, symObjAddr: 0x488, symBinAddr: 0x100003A6C, symSize: 0x34 }
  - { offsetInCU: 0x16D43, offset: 0x16D43, size: 0x8, addend: 0x0, symName: __ZNSt3__16vectorI12EllipseShapeNS_9allocatorIS1_EEEC1B8ue170006Ev, symObjAddr: 0x4BC, symBinAddr: 0x100003AA0, symSize: 0x2C }
  - { offsetInCU: 0x16D6C, offset: 0x16D6C, size: 0x8, addend: 0x0, symName: __ZN2sf15ContextSettingsC1Ejjjjjjb, symObjAddr: 0x4E8, symBinAddr: 0x100003ACC, symSize: 0x70 }
  - { offsetInCU: 0x16DF7, offset: 0x16DF7, size: 0x8, addend: 0x0, symName: __ZN2sf6StringD1Ev, symObjAddr: 0x558, symBinAddr: 0x100003B3C, symSize: 0x2C }
  - { offsetInCU: 0x16E22, offset: 0x16E22, size: 0x8, addend: 0x0, symName: __ZNSt3__16vectorI12EllipseShapeNS_9allocatorIS1_EEE9push_backB8ue170006ERKS1_, symObjAddr: 0x584, symBinAddr: 0x100003B68, symSize: 0x6C }
  - { offsetInCU: 0x16E57, offset: 0x16E57, size: 0x8, addend: 0x0, symName: __ZNSt3__16vectorI12EllipseShapeNS_9allocatorIS1_EEE5beginB8ue170006Ev, symObjAddr: 0x5F0, symBinAddr: 0x100003BD4, symSize: 0x30 }
  - { offsetInCU: 0x16E7D, offset: 0x16E7D, size: 0x8, addend: 0x0, symName: __ZNSt3__16vectorI12EllipseShapeNS_9allocatorIS1_EEE3endB8ue170006Ev, symObjAddr: 0x620, symBinAddr: 0x100003C04, symSize: 0x30 }
  - { offsetInCU: 0x16EA3, offset: 0x16EA3, size: 0x8, addend: 0x0, symName: __ZNKSt3__111__wrap_iterIP12EllipseShapeEdeB8ue170006Ev, symObjAddr: 0x684, symBinAddr: 0x100003C68, symSize: 0x18 }
  - { offsetInCU: 0x16EC8, offset: 0x16EC8, size: 0x8, addend: 0x0, symName: __ZNSt3__111__wrap_iterIP12EllipseShapeEppB8ue170006Ev, symObjAddr: 0x69C, symBinAddr: 0x100003C80, symSize: 0x20 }
  - { offsetInCU: 0x16EED, offset: 0x16EED, size: 0x8, addend: 0x0, symName: __ZNSt3__16vectorI12EllipseShapeNS_9allocatorIS1_EEED1B8ue170006Ev, symObjAddr: 0x6BC, symBinAddr: 0x100003CA0, symSize: 0x2C }
  - { offsetInCU: 0x16F16, offset: 0x16F16, size: 0x8, addend: 0x0, symName: __ZN12EllipseShapeD1Ev, symObjAddr: 0x6E8, symBinAddr: 0x100003CCC, symSize: 0x2C }
  - { offsetInCU: 0x16F41, offset: 0x16F41, size: 0x8, addend: 0x0, symName: __ZN12EllipseShapeC2ERKN2sf7Vector2IfEE, symObjAddr: 0x714, symBinAddr: 0x100003CF8, symSize: 0x94 }
  - { offsetInCU: 0x16F78, offset: 0x16F78, size: 0x8, addend: 0x0, symName: __ZN12EllipseShapeD0Ev, symObjAddr: 0x7A8, symBinAddr: 0x100003D8C, symSize: 0x30 }
  - { offsetInCU: 0x16FA3, offset: 0x16FA3, size: 0x8, addend: 0x0, symName: __ZNK12EllipseShape13getPointCountEv, symObjAddr: 0x7D8, symBinAddr: 0x100003DBC, symSize: 0x14 }
  - { offsetInCU: 0x16FC8, offset: 0x16FC8, size: 0x8, addend: 0x0, symName: __ZThn8_N12EllipseShapeD1Ev, symObjAddr: 0x8B8, symBinAddr: 0x100003E9C, symSize: 0x1C }
  - { offsetInCU: 0x16FDE, offset: 0x16FDE, size: 0x8, addend: 0x0, symName: __ZThn8_N12EllipseShapeD0Ev, symObjAddr: 0x8D4, symBinAddr: 0x100003EB8, symSize: 0x18 }
  - { offsetInCU: 0x16FF3, offset: 0x16FF3, size: 0x8, addend: 0x0, symName: __Z3cosB8ue170006f, symObjAddr: 0x8EC, symBinAddr: 0x100003ED0, symSize: 0x24 }
  - { offsetInCU: 0x17021, offset: 0x17021, size: 0x8, addend: 0x0, symName: __Z3sinB8ue170006f, symObjAddr: 0x910, symBinAddr: 0x100003EF4, symSize: 0x24 }
  - { offsetInCU: 0x17050, offset: 0x17050, size: 0x8, addend: 0x0, symName: __ZN2sf15ContextSettingsC2Ejjjjjjb, symObjAddr: 0x934, symBinAddr: 0x100003F18, symSize: 0x74 }
  - { offsetInCU: 0x170DB, offset: 0x170DB, size: 0x8, addend: 0x0, symName: __ZN2sf6StringD2Ev, symObjAddr: 0x9A8, symBinAddr: 0x100003F8C, symSize: 0x2C }
  - { offsetInCU: 0x17106, offset: 0x17106, size: 0x8, addend: 0x0, symName: __ZNSt3__112basic_stringIjNS_11char_traitsIjEENS_9allocatorIjEEED1Ev, symObjAddr: 0x9D4, symBinAddr: 0x100003FB8, symSize: 0x2C }
  - { offsetInCU: 0x1712F, offset: 0x1712F, size: 0x8, addend: 0x0, symName: __ZNSt3__112basic_stringIjNS_11char_traitsIjEENS_9allocatorIjEEED2Ev, symObjAddr: 0xA00, symBinAddr: 0x100003FE4, symSize: 0x74 }
  - { offsetInCU: 0x17157, offset: 0x17157, size: 0x8, addend: 0x0, symName: __ZNKSt3__112basic_stringIjNS_11char_traitsIjEENS_9allocatorIjEEE9__is_longB8ue170006Ev, symObjAddr: 0xA74, symBinAddr: 0x100004058, symSize: 0x38 }
  - { offsetInCU: 0x1717C, offset: 0x1717C, size: 0x8, addend: 0x0, symName: __ZNSt3__116allocator_traitsINS_9allocatorIjEEE10deallocateB8ue170006ERS2_Pjm, symObjAddr: 0xAAC, symBinAddr: 0x100004090, symSize: 0x34 }
  - { offsetInCU: 0x171BD, offset: 0x171BD, size: 0x8, addend: 0x0, symName: __ZNSt3__112basic_stringIjNS_11char_traitsIjEENS_9allocatorIjEEE7__allocB8ue170006Ev, symObjAddr: 0xAE0, symBinAddr: 0x1000040C4, symSize: 0x24 }
  - { offsetInCU: 0x171E1, offset: 0x171E1, size: 0x8, addend: 0x0, symName: __ZNSt3__112basic_stringIjNS_11char_traitsIjEENS_9allocatorIjEEE18__get_long_pointerB8ue170006Ev, symObjAddr: 0xB04, symBinAddr: 0x1000040E8, symSize: 0x28 }
  - { offsetInCU: 0x17205, offset: 0x17205, size: 0x8, addend: 0x0, symName: __ZNKSt3__112basic_stringIjNS_11char_traitsIjEENS_9allocatorIjEEE14__get_long_capB8ue170006Ev, symObjAddr: 0xB2C, symBinAddr: 0x100004110, symSize: 0x30 }
  - { offsetInCU: 0x17229, offset: 0x17229, size: 0x8, addend: 0x0, symName: __ZNKSt3__117__compressed_pairINS_12basic_stringIjNS_11char_traitsIjEENS_9allocatorIjEEE5__repES5_E5firstB8ue170006Ev, symObjAddr: 0xB5C, symBinAddr: 0x100004140, symSize: 0x24 }
  - { offsetInCU: 0x1724E, offset: 0x1724E, size: 0x8, addend: 0x0, symName: __ZNKSt3__122__compressed_pair_elemINS_12basic_stringIjNS_11char_traitsIjEENS_9allocatorIjEEE5__repELi0ELb0EE5__getB8ue170006Ev, symObjAddr: 0xB80, symBinAddr: 0x100004164, symSize: 0x14 }
  - { offsetInCU: 0x17272, offset: 0x17272, size: 0x8, addend: 0x0, symName: __ZNSt3__19allocatorIjE10deallocateB8ue170006EPjm, symObjAddr: 0xB94, symBinAddr: 0x100004178, symSize: 0x40 }
  - { offsetInCU: 0x172B2, offset: 0x172B2, size: 0x8, addend: 0x0, symName: __ZNSt3__117__compressed_pairINS_12basic_stringIjNS_11char_traitsIjEENS_9allocatorIjEEE5__repES5_E6secondB8ue170006Ev, symObjAddr: 0xC5C, symBinAddr: 0x100004240, symSize: 0x24 }
  - { offsetInCU: 0x172D7, offset: 0x172D7, size: 0x8, addend: 0x0, symName: __ZNSt3__122__compressed_pair_elemINS_9allocatorIjEELi1ELb1EE5__getB8ue170006Ev, symObjAddr: 0xC80, symBinAddr: 0x100004264, symSize: 0x14 }
  - { offsetInCU: 0x172FB, offset: 0x172FB, size: 0x8, addend: 0x0, symName: __ZNSt3__117__compressed_pairINS_12basic_stringIjNS_11char_traitsIjEENS_9allocatorIjEEE5__repES5_E5firstB8ue170006Ev, symObjAddr: 0xC94, symBinAddr: 0x100004278, symSize: 0x24 }
  - { offsetInCU: 0x17320, offset: 0x17320, size: 0x8, addend: 0x0, symName: __ZNSt3__122__compressed_pair_elemINS_12basic_stringIjNS_11char_traitsIjEENS_9allocatorIjEEE5__repELi0ELb0EE5__getB8ue170006Ev, symObjAddr: 0xCB8, symBinAddr: 0x10000429C, symSize: 0x14 }
  - { offsetInCU: 0x17345, offset: 0x17345, size: 0x8, addend: 0x0, symName: __ZNKSt3__111__wrap_iterIP12EllipseShapeE4baseB8ue170006Ev, symObjAddr: 0xD14, symBinAddr: 0x1000042F8, symSize: 0x18 }
  - { offsetInCU: 0x1736A, offset: 0x1736A, size: 0x8, addend: 0x0, symName: __ZN12EllipseShapeD2Ev, symObjAddr: 0xD2C, symBinAddr: 0x100004310, symSize: 0x2C }
  - { offsetInCU: 0x17395, offset: 0x17395, size: 0x8, addend: 0x0, symName: __ZN2sf7Vector2IfEC2Eff, symObjAddr: 0xD58, symBinAddr: 0x10000433C, symSize: 0x2C }
  - { offsetInCU: 0x173DC, offset: 0x173DC, size: 0x8, addend: 0x0, symName: __ZNSt3__16vectorI12EllipseShapeNS_9allocatorIS1_EEEC2B8ue170006Ev, symObjAddr: 0xD84, symBinAddr: 0x100004368, symSize: 0x4C }
  - { offsetInCU: 0x1740F, offset: 0x1740F, size: 0x8, addend: 0x0, symName: __ZNSt3__117__compressed_pairIP12EllipseShapeNS_9allocatorIS1_EEEC1B8ue170006IDnNS_18__default_init_tagEEEOT_OT0_, symObjAddr: 0xDD0, symBinAddr: 0x1000043B4, symSize: 0x3C }
  - { offsetInCU: 0x17466, offset: 0x17466, size: 0x8, addend: 0x0, symName: __ZNSt3__117__compressed_pairIP12EllipseShapeNS_9allocatorIS1_EEEC2B8ue170006IDnNS_18__default_init_tagEEEOT_OT0_, symObjAddr: 0xE0C, symBinAddr: 0x1000043F0, symSize: 0x40 }
  - { offsetInCU: 0x174BD, offset: 0x174BD, size: 0x8, addend: 0x0, symName: __ZNSt3__122__compressed_pair_elemIP12EllipseShapeLi0ELb0EEC2B8ue170006IDnvEEOT_, symObjAddr: 0xE4C, symBinAddr: 0x100004430, symSize: 0x1C }
  - { offsetInCU: 0x174FE, offset: 0x174FE, size: 0x8, addend: 0x0, symName: __ZNSt3__122__compressed_pair_elemINS_9allocatorI12EllipseShapeEELi1ELb1EEC2B8ue170006ENS_18__default_init_tagE, symObjAddr: 0xE68, symBinAddr: 0x10000444C, symSize: 0x2C }
  - { offsetInCU: 0x17532, offset: 0x17532, size: 0x8, addend: 0x0, symName: __ZNSt3__19allocatorI12EllipseShapeEC2B8ue170006Ev, symObjAddr: 0xE94, symBinAddr: 0x100004478, symSize: 0x2C }
  - { offsetInCU: 0x1755B, offset: 0x1755B, size: 0x8, addend: 0x0, symName: __ZNSt3__116__non_trivial_ifILb1ENS_9allocatorI12EllipseShapeEEEC2B8ue170006Ev, symObjAddr: 0xEC0, symBinAddr: 0x1000044A4, symSize: 0x14 }
  - { offsetInCU: 0x17584, offset: 0x17584, size: 0x8, addend: 0x0, symName: __ZNSt3__16vectorI12EllipseShapeNS_9allocatorIS1_EEED2B8ue170006Ev, symObjAddr: 0xED4, symBinAddr: 0x1000044B8, symSize: 0x44 }
  - { offsetInCU: 0x175AD, offset: 0x175AD, size: 0x8, addend: 0x0, symName: __ZNSt3__16vectorI12EllipseShapeNS_9allocatorIS1_EEE16__destroy_vectorC1B8ue170006ERS4_, symObjAddr: 0xF18, symBinAddr: 0x1000044FC, symSize: 0x34 }
  - { offsetInCU: 0x175E4, offset: 0x175E4, size: 0x8, addend: 0x0, symName: __ZNSt3__16vectorI12EllipseShapeNS_9allocatorIS1_EEE16__destroy_vectorclB8ue170006Ev, symObjAddr: 0xF4C, symBinAddr: 0x100004530, symSize: 0x90 }
  - { offsetInCU: 0x17609, offset: 0x17609, size: 0x8, addend: 0x0, symName: __ZNSt3__16vectorI12EllipseShapeNS_9allocatorIS1_EEE16__destroy_vectorC2B8ue170006ERS4_, symObjAddr: 0xFDC, symBinAddr: 0x1000045C0, symSize: 0x20 }
  - { offsetInCU: 0x17640, offset: 0x17640, size: 0x8, addend: 0x0, symName: __ZNSt3__16vectorI12EllipseShapeNS_9allocatorIS1_EEE7__clearB8ue170006Ev, symObjAddr: 0xFFC, symBinAddr: 0x1000045E0, symSize: 0x28 }
  - { offsetInCU: 0x17664, offset: 0x17664, size: 0x8, addend: 0x0, symName: __ZNKSt3__16vectorI12EllipseShapeNS_9allocatorIS1_EEE17__annotate_deleteB8ue170006Ev, symObjAddr: 0x1024, symBinAddr: 0x100004608, symSize: 0xD4 }
  - { offsetInCU: 0x17689, offset: 0x17689, size: 0x8, addend: 0x0, symName: __ZNSt3__116allocator_traitsINS_9allocatorI12EllipseShapeEEE10deallocateB8ue170006ERS3_PS2_m, symObjAddr: 0x10F8, symBinAddr: 0x1000046DC, symSize: 0x34 }
  - { offsetInCU: 0x176CA, offset: 0x176CA, size: 0x8, addend: 0x0, symName: __ZNSt3__16vectorI12EllipseShapeNS_9allocatorIS1_EEE7__allocB8ue170006Ev, symObjAddr: 0x112C, symBinAddr: 0x100004710, symSize: 0x28 }
  - { offsetInCU: 0x176EE, offset: 0x176EE, size: 0x8, addend: 0x0, symName: __ZNKSt3__16vectorI12EllipseShapeNS_9allocatorIS1_EEE8capacityB8ue170006Ev, symObjAddr: 0x1154, symBinAddr: 0x100004738, symSize: 0x40 }
  - { offsetInCU: 0x17712, offset: 0x17712, size: 0x8, addend: 0x0, symName: __ZNSt3__16vectorI12EllipseShapeNS_9allocatorIS1_EEE22__base_destruct_at_endB8ue170006EPS1_, symObjAddr: 0x1194, symBinAddr: 0x100004778, symSize: 0x8C }
  - { offsetInCU: 0x17755, offset: 0x17755, size: 0x8, addend: 0x0, symName: __ZNSt3__116allocator_traitsINS_9allocatorI12EllipseShapeEEE7destroyB8ue170006IS2_vEEvRS3_PT_, symObjAddr: 0x1220, symBinAddr: 0x100004804, symSize: 0x2C }
  - { offsetInCU: 0x17791, offset: 0x17791, size: 0x8, addend: 0x0, symName: __ZNSt3__19allocatorI12EllipseShapeE7destroyB8ue170006EPS1_, symObjAddr: 0x1260, symBinAddr: 0x100004844, symSize: 0x30 }
  - { offsetInCU: 0x177C4, offset: 0x177C4, size: 0x8, addend: 0x0, symName: __ZNKSt3__16vectorI12EllipseShapeNS_9allocatorIS1_EEE31__annotate_contiguous_containerB8ue170006EPKvS6_S6_S6_, symObjAddr: 0x1290, symBinAddr: 0x100004874, symSize: 0x20 }
  - { offsetInCU: 0x17814, offset: 0x17814, size: 0x8, addend: 0x0, symName: __ZNKSt3__16vectorI12EllipseShapeNS_9allocatorIS1_EEE4dataB8ue170006Ev, symObjAddr: 0x12B0, symBinAddr: 0x100004894, symSize: 0x28 }
  - { offsetInCU: 0x17839, offset: 0x17839, size: 0x8, addend: 0x0, symName: __ZNKSt3__16vectorI12EllipseShapeNS_9allocatorIS1_EEE4sizeB8ue170006Ev, symObjAddr: 0x12D8, symBinAddr: 0x1000048BC, symSize: 0x28 }
  - { offsetInCU: 0x1785D, offset: 0x1785D, size: 0x8, addend: 0x0, symName: __ZNSt3__19allocatorI12EllipseShapeE10deallocateB8ue170006EPS1_m, symObjAddr: 0x1300, symBinAddr: 0x1000048E4, symSize: 0x44 }
  - { offsetInCU: 0x1789D, offset: 0x1789D, size: 0x8, addend: 0x0, symName: __ZNSt3__117__compressed_pairIP12EllipseShapeNS_9allocatorIS1_EEE6secondB8ue170006Ev, symObjAddr: 0x1344, symBinAddr: 0x100004928, symSize: 0x24 }
  - { offsetInCU: 0x178C2, offset: 0x178C2, size: 0x8, addend: 0x0, symName: __ZNSt3__122__compressed_pair_elemINS_9allocatorI12EllipseShapeEELi1ELb1EE5__getB8ue170006Ev, symObjAddr: 0x1368, symBinAddr: 0x10000494C, symSize: 0x14 }
  - { offsetInCU: 0x178E6, offset: 0x178E6, size: 0x8, addend: 0x0, symName: __ZNKSt3__16vectorI12EllipseShapeNS_9allocatorIS1_EEE9__end_capB8ue170006Ev, symObjAddr: 0x137C, symBinAddr: 0x100004960, symSize: 0x28 }
  - { offsetInCU: 0x1790A, offset: 0x1790A, size: 0x8, addend: 0x0, symName: __ZNKSt3__117__compressed_pairIP12EllipseShapeNS_9allocatorIS1_EEE5firstB8ue170006Ev, symObjAddr: 0x13A4, symBinAddr: 0x100004988, symSize: 0x24 }
  - { offsetInCU: 0x1792F, offset: 0x1792F, size: 0x8, addend: 0x0, symName: __ZNKSt3__122__compressed_pair_elemIP12EllipseShapeLi0ELb0EE5__getB8ue170006Ev, symObjAddr: 0x13C8, symBinAddr: 0x1000049AC, symSize: 0x14 }
  - { offsetInCU: 0x17953, offset: 0x17953, size: 0x8, addend: 0x0, symName: __ZNSt3__16vectorI12EllipseShapeNS_9allocatorIS1_EEE9__end_capB8ue170006Ev, symObjAddr: 0x13DC, symBinAddr: 0x1000049C0, symSize: 0x28 }
  - { offsetInCU: 0x17977, offset: 0x17977, size: 0x8, addend: 0x0, symName: __ZNSt3__16vectorI12EllipseShapeNS_9allocatorIS1_EEE22__construct_one_at_endB8ue170006IJRKS1_EEEvDpOT_, symObjAddr: 0x1404, symBinAddr: 0x1000049E8, symSize: 0x90 }
  - { offsetInCU: 0x179C5, offset: 0x179C5, size: 0x8, addend: 0x0, symName: __ZNSt3__16vectorI12EllipseShapeNS_9allocatorIS1_EEE21__push_back_slow_pathIRKS1_EEvOT_, symObjAddr: 0x1494, symBinAddr: 0x100004A78, symSize: 0xD8 }
  - { offsetInCU: 0x17A20, offset: 0x17A20, size: 0x8, addend: 0x0, symName: __ZNSt3__117__compressed_pairIP12EllipseShapeNS_9allocatorIS1_EEE5firstB8ue170006Ev, symObjAddr: 0x156C, symBinAddr: 0x100004B50, symSize: 0x24 }
  - { offsetInCU: 0x17A45, offset: 0x17A45, size: 0x8, addend: 0x0, symName: __ZNSt3__122__compressed_pair_elemIP12EllipseShapeLi0ELb0EE5__getB8ue170006Ev, symObjAddr: 0x1590, symBinAddr: 0x100004B74, symSize: 0x14 }
  - { offsetInCU: 0x17A83, offset: 0x17A83, size: 0x8, addend: 0x0, symName: __ZNSt3__16vectorI12EllipseShapeNS_9allocatorIS1_EEE21_ConstructTransactionC1B8ue170006ERS4_m, symObjAddr: 0x15A4, symBinAddr: 0x100004B88, symSize: 0x3C }
  - { offsetInCU: 0x17ACA, offset: 0x17ACA, size: 0x8, addend: 0x0, symName: __ZNSt3__116allocator_traitsINS_9allocatorI12EllipseShapeEEE9constructB8ue170006IS2_JRKS2_EvEEvRS3_PT_DpOT0_, symObjAddr: 0x15E0, symBinAddr: 0x100004BC4, symSize: 0x34 }
  - { offsetInCU: 0x17B21, offset: 0x17B21, size: 0x8, addend: 0x0, symName: __ZNSt3__16vectorI12EllipseShapeNS_9allocatorIS1_EEE21_ConstructTransactionD1B8ue170006Ev, symObjAddr: 0x1614, symBinAddr: 0x100004BF8, symSize: 0x2C }
  - { offsetInCU: 0x17B4A, offset: 0x17B4A, size: 0x8, addend: 0x0, symName: __ZNSt3__16vectorI12EllipseShapeNS_9allocatorIS1_EEE21_ConstructTransactionC2B8ue170006ERS4_m, symObjAddr: 0x1640, symBinAddr: 0x100004C24, symSize: 0x4C }
  - { offsetInCU: 0x17B90, offset: 0x17B90, size: 0x8, addend: 0x0, symName: __ZNSt3__19allocatorI12EllipseShapeE9constructB8ue170006IS1_JRKS1_EEEvPT_DpOT0_, symObjAddr: 0x168C, symBinAddr: 0x100004C70, symSize: 0x30 }
  - { offsetInCU: 0x17BE5, offset: 0x17BE5, size: 0x8, addend: 0x0, symName: __ZN12EllipseShapeC1ERKS_, symObjAddr: 0x16BC, symBinAddr: 0x100004CA0, symSize: 0x34 }
  - { offsetInCU: 0x17C19, offset: 0x17C19, size: 0x8, addend: 0x0, symName: __ZN12EllipseShapeC2ERKS_, symObjAddr: 0x16F0, symBinAddr: 0x100004CD4, symSize: 0x68 }
  - { offsetInCU: 0x17C52, offset: 0x17C52, size: 0x8, addend: 0x0, symName: __ZN2sf5ShapeC2ERKS0_, symObjAddr: 0x1758, symBinAddr: 0x100004D3C, symSize: 0x11C }
  - { offsetInCU: 0x17C86, offset: 0x17C86, size: 0x8, addend: 0x0, symName: __ZN2sf8DrawableC2ERKS0_, symObjAddr: 0x1874, symBinAddr: 0x100004E58, symSize: 0x28 }
  - { offsetInCU: 0x17CBF, offset: 0x17CBF, size: 0x8, addend: 0x0, symName: __ZN2sf13TransformableC2ERKS0_, symObjAddr: 0x189C, symBinAddr: 0x100004E80, symSize: 0x50 }
  - { offsetInCU: 0x17CF8, offset: 0x17CF8, size: 0x8, addend: 0x0, symName: __ZN2sf11VertexArrayC1ERKS0_, symObjAddr: 0x18EC, symBinAddr: 0x100004ED0, symSize: 0x34 }
  - { offsetInCU: 0x17D2C, offset: 0x17D2C, size: 0x8, addend: 0x0, symName: __ZN2sf11VertexArrayD1Ev, symObjAddr: 0x1920, symBinAddr: 0x100004F04, symSize: 0x2C }
  - { offsetInCU: 0x17D57, offset: 0x17D57, size: 0x8, addend: 0x0, symName: __ZN2sf8DrawableD2Ev, symObjAddr: 0x194C, symBinAddr: 0x100004F30, symSize: 0x14 }
  - { offsetInCU: 0x17D80, offset: 0x17D80, size: 0x8, addend: 0x0, symName: __ZN2sf8DrawableD1Ev, symObjAddr: 0x1960, symBinAddr: 0x100004F44, symSize: 0x14 }
  - { offsetInCU: 0x17DA9, offset: 0x17DA9, size: 0x8, addend: 0x0, symName: __ZN2sf8DrawableD0Ev, symObjAddr: 0x1974, symBinAddr: 0x100004F58, symSize: 0xC }
  - { offsetInCU: 0x17DD2, offset: 0x17DD2, size: 0x8, addend: 0x0, symName: __ZN2sf11VertexArrayC2ERKS0_, symObjAddr: 0x1980, symBinAddr: 0x100004F64, symSize: 0x94 }
  - { offsetInCU: 0x17E06, offset: 0x17E06, size: 0x8, addend: 0x0, symName: __ZNSt3__16vectorIN2sf6VertexENS_9allocatorIS2_EEEC1ERKS5_, symObjAddr: 0x1A14, symBinAddr: 0x100004FF8, symSize: 0x34 }
  - { offsetInCU: 0x17E40, offset: 0x17E40, size: 0x8, addend: 0x0, symName: __ZNSt3__16vectorIN2sf6VertexENS_9allocatorIS2_EEEC2ERKS5_, symObjAddr: 0x1A48, symBinAddr: 0x10000502C, symSize: 0x94 }
  - { offsetInCU: 0x17E84, offset: 0x17E84, size: 0x8, addend: 0x0, symName: __ZNSt3__116allocator_traitsINS_9allocatorIN2sf6VertexEEEE37select_on_container_copy_constructionB8ue170006IS4_vvEES4_RKS4_, symObjAddr: 0x1ADC, symBinAddr: 0x1000050C0, symSize: 0x10 }
  - { offsetInCU: 0x17EB2, offset: 0x17EB2, size: 0x8, addend: 0x0, symName: __ZNKSt3__16vectorIN2sf6VertexENS_9allocatorIS2_EEE7__allocB8ue170006Ev, symObjAddr: 0x1AEC, symBinAddr: 0x1000050D0, symSize: 0x28 }
  - { offsetInCU: 0x17EDC, offset: 0x17EDC, size: 0x8, addend: 0x0, symName: __ZNSt3__117__compressed_pairIPN2sf6VertexENS_9allocatorIS2_EEEC1B8ue170006IDnS5_EEOT_OT0_, symObjAddr: 0x1B14, symBinAddr: 0x1000050F8, symSize: 0x3C }
  - { offsetInCU: 0x17F32, offset: 0x17F32, size: 0x8, addend: 0x0, symName: __ZNSt3__16vectorIN2sf6VertexENS_9allocatorIS2_EEE16__init_with_sizeB8ue170006IPS2_S7_EEvT_T0_m, symObjAddr: 0x1B50, symBinAddr: 0x100005134, symSize: 0xB8 }
  - { offsetInCU: 0x17FA5, offset: 0x17FA5, size: 0x8, addend: 0x0, symName: __ZNKSt3__16vectorIN2sf6VertexENS_9allocatorIS2_EEE4sizeB8ue170006Ev, symObjAddr: 0x1C08, symBinAddr: 0x1000051EC, symSize: 0x28 }
  - { offsetInCU: 0x17FC9, offset: 0x17FC9, size: 0x8, addend: 0x0, symName: __ZNKSt3__117__compressed_pairIPN2sf6VertexENS_9allocatorIS2_EEE6secondB8ue170006Ev, symObjAddr: 0x1C30, symBinAddr: 0x100005214, symSize: 0x24 }
  - { offsetInCU: 0x17FEE, offset: 0x17FEE, size: 0x8, addend: 0x0, symName: __ZNKSt3__122__compressed_pair_elemINS_9allocatorIN2sf6VertexEEELi1ELb1EE5__getB8ue170006Ev, symObjAddr: 0x1C54, symBinAddr: 0x100005238, symSize: 0x14 }
  - { offsetInCU: 0x18013, offset: 0x18013, size: 0x8, addend: 0x0, symName: __ZNSt3__117__compressed_pairIPN2sf6VertexENS_9allocatorIS2_EEEC2B8ue170006IDnS5_EEOT_OT0_, symObjAddr: 0x1C68, symBinAddr: 0x10000524C, symSize: 0x44 }
  - { offsetInCU: 0x1806A, offset: 0x1806A, size: 0x8, addend: 0x0, symName: __ZNSt3__122__compressed_pair_elemIPN2sf6VertexELi0ELb0EEC2B8ue170006IDnvEEOT_, symObjAddr: 0x1CAC, symBinAddr: 0x100005290, symSize: 0x1C }
  - { offsetInCU: 0x180AB, offset: 0x180AB, size: 0x8, addend: 0x0, symName: __ZNSt3__122__compressed_pair_elemINS_9allocatorIN2sf6VertexEEELi1ELb1EEC2B8ue170006IS4_vEEOT_, symObjAddr: 0x1CC8, symBinAddr: 0x1000052AC, symSize: 0x18 }
  - { offsetInCU: 0x180EC, offset: 0x180EC, size: 0x8, addend: 0x0, symName: __ZNSt3__16vectorIN2sf6VertexENS_9allocatorIS2_EEE16__destroy_vectorC1B8ue170006ERS5_, symObjAddr: 0x1D20, symBinAddr: 0x100005304, symSize: 0x34 }
  - { offsetInCU: 0x18123, offset: 0x18123, size: 0x8, addend: 0x0, symName: __ZNSt3__16vectorIN2sf6VertexENS_9allocatorIS2_EEE11__vallocateB8ue170006Em, symObjAddr: 0x1D54, symBinAddr: 0x100005338, symSize: 0xB4 }
  - { offsetInCU: 0x18166, offset: 0x18166, size: 0x8, addend: 0x0, symName: __ZNSt3__16vectorIN2sf6VertexENS_9allocatorIS2_EEE18__construct_at_endIPS2_S7_EEvT_T0_m, symObjAddr: 0x1E08, symBinAddr: 0x1000053EC, symSize: 0x8C }
  - { offsetInCU: 0x181DA, offset: 0x181DA, size: 0x8, addend: 0x0, symName: __ZNSt3__128__exception_guard_exceptionsINS_6vectorIN2sf6VertexENS_9allocatorIS3_EEE16__destroy_vectorEE10__completeB8ue170006Ev, symObjAddr: 0x1E94, symBinAddr: 0x100005478, symSize: 0x1C }
  - { offsetInCU: 0x181FF, offset: 0x181FF, size: 0x8, addend: 0x0, symName: __ZNSt3__128__exception_guard_exceptionsINS_6vectorIN2sf6VertexENS_9allocatorIS3_EEE16__destroy_vectorEED1B8ue170006Ev, symObjAddr: 0x1EB0, symBinAddr: 0x100005494, symSize: 0x2C }
  - { offsetInCU: 0x18228, offset: 0x18228, size: 0x8, addend: 0x0, symName: __ZNSt3__128__exception_guard_exceptionsINS_6vectorIN2sf6VertexENS_9allocatorIS3_EEE16__destroy_vectorEEC1B8ue170006ES7_, symObjAddr: 0x1EDC, symBinAddr: 0x1000054C0, symSize: 0x34 }
  - { offsetInCU: 0x1825F, offset: 0x1825F, size: 0x8, addend: 0x0, symName: __ZNSt3__128__exception_guard_exceptionsINS_6vectorIN2sf6VertexENS_9allocatorIS3_EEE16__destroy_vectorEEC2B8ue170006ES7_, symObjAddr: 0x1F10, symBinAddr: 0x1000054F4, symSize: 0x24 }
  - { offsetInCU: 0x18296, offset: 0x18296, size: 0x8, addend: 0x0, symName: __ZNSt3__16vectorIN2sf6VertexENS_9allocatorIS2_EEE16__destroy_vectorC2B8ue170006ERS5_, symObjAddr: 0x1F34, symBinAddr: 0x100005518, symSize: 0x20 }
  - { offsetInCU: 0x182CE, offset: 0x182CE, size: 0x8, addend: 0x0, symName: __ZNKSt3__16vectorIN2sf6VertexENS_9allocatorIS2_EEE8max_sizeEv, symObjAddr: 0x1F54, symBinAddr: 0x100005538, symSize: 0x60 }
  - { offsetInCU: 0x182F3, offset: 0x182F3, size: 0x8, addend: 0x0, symName: __ZNKSt3__16vectorIN2sf6VertexENS_9allocatorIS2_EEE20__throw_length_errorB8ue170006Ev, symObjAddr: 0x1FB4, symBinAddr: 0x100005598, symSize: 0x1C }
  - { offsetInCU: 0x18317, offset: 0x18317, size: 0x8, addend: 0x0, symName: __ZNSt3__16vectorIN2sf6VertexENS_9allocatorIS2_EEE7__allocB8ue170006Ev, symObjAddr: 0x2010, symBinAddr: 0x1000055F4, symSize: 0x28 }
  - { offsetInCU: 0x1833B, offset: 0x1833B, size: 0x8, addend: 0x0, symName: __ZNSt3__16vectorIN2sf6VertexENS_9allocatorIS2_EEE9__end_capB8ue170006Ev, symObjAddr: 0x2038, symBinAddr: 0x10000561C, symSize: 0x28 }
  - { offsetInCU: 0x1835F, offset: 0x1835F, size: 0x8, addend: 0x0, symName: __ZNKSt3__16vectorIN2sf6VertexENS_9allocatorIS2_EEE14__annotate_newB8ue170006Em, symObjAddr: 0x2060, symBinAddr: 0x100005644, symSize: 0xC8 }
  - { offsetInCU: 0x18393, offset: 0x18393, size: 0x8, addend: 0x0, symName: __ZNSt3__116allocator_traitsINS_9allocatorIN2sf6VertexEEEE8max_sizeB8ue170006IS4_vEEmRKS4_, symObjAddr: 0x2154, symBinAddr: 0x100005738, symSize: 0x24 }
  - { offsetInCU: 0x183C1, offset: 0x183C1, size: 0x8, addend: 0x0, symName: __ZNSt3__114numeric_limitsIlE3maxB8ue170006Ev, symObjAddr: 0x2178, symBinAddr: 0x10000575C, symSize: 0x14 }
  - { offsetInCU: 0x183DF, offset: 0x183DF, size: 0x8, addend: 0x0, symName: __ZNKSt3__16__lessIvvEclB8ue170006ImmEEbRKT_RKT0_, symObjAddr: 0x21E0, symBinAddr: 0x1000057C4, symSize: 0x34 }
  - { offsetInCU: 0x18432, offset: 0x18432, size: 0x8, addend: 0x0, symName: __ZNKSt3__19allocatorIN2sf6VertexEE8max_sizeB8ue170006Ev, symObjAddr: 0x2214, symBinAddr: 0x1000057F8, symSize: 0x18 }
  - { offsetInCU: 0x18457, offset: 0x18457, size: 0x8, addend: 0x0, symName: __ZNSt3__123__libcpp_numeric_limitsIlLb1EE3maxB8ue170006Ev, symObjAddr: 0x222C, symBinAddr: 0x100005810, symSize: 0x8 }
  - { offsetInCU: 0x1846B, offset: 0x1846B, size: 0x8, addend: 0x0, symName: __ZNSt12length_errorC1B8ue170006EPKc, symObjAddr: 0x2298, symBinAddr: 0x10000587C, symSize: 0x34 }
  - { offsetInCU: 0x184A2, offset: 0x184A2, size: 0x8, addend: 0x0, symName: __ZNSt12length_errorC2B8ue170006EPKc, symObjAddr: 0x22CC, symBinAddr: 0x1000058B0, symSize: 0x4C }
  - { offsetInCU: 0x184D8, offset: 0x184D8, size: 0x8, addend: 0x0, symName: __ZNSt3__19allocatorIN2sf6VertexEE8allocateB8ue170006Em, symObjAddr: 0x2318, symBinAddr: 0x1000058FC, symSize: 0x5C }
  - { offsetInCU: 0x1850A, offset: 0x1850A, size: 0x8, addend: 0x0, symName: __ZNSt3__117__compressed_pairIPN2sf6VertexENS_9allocatorIS2_EEE6secondB8ue170006Ev, symObjAddr: 0x23F4, symBinAddr: 0x1000059D8, symSize: 0x24 }
  - { offsetInCU: 0x1852F, offset: 0x1852F, size: 0x8, addend: 0x0, symName: __ZNSt3__122__compressed_pair_elemINS_9allocatorIN2sf6VertexEEELi1ELb1EE5__getB8ue170006Ev, symObjAddr: 0x2418, symBinAddr: 0x1000059FC, symSize: 0x14 }
  - { offsetInCU: 0x18553, offset: 0x18553, size: 0x8, addend: 0x0, symName: __ZNSt3__117__compressed_pairIPN2sf6VertexENS_9allocatorIS2_EEE5firstB8ue170006Ev, symObjAddr: 0x242C, symBinAddr: 0x100005A10, symSize: 0x24 }
  - { offsetInCU: 0x18578, offset: 0x18578, size: 0x8, addend: 0x0, symName: __ZNSt3__122__compressed_pair_elemIPN2sf6VertexELi0ELb0EE5__getB8ue170006Ev, symObjAddr: 0x2450, symBinAddr: 0x100005A34, symSize: 0x14 }
  - { offsetInCU: 0x1859D, offset: 0x1859D, size: 0x8, addend: 0x0, symName: __ZNKSt3__16vectorIN2sf6VertexENS_9allocatorIS2_EEE31__annotate_contiguous_containerB8ue170006EPKvS7_S7_S7_, symObjAddr: 0x2464, symBinAddr: 0x100005A48, symSize: 0x20 }
  - { offsetInCU: 0x185ED, offset: 0x185ED, size: 0x8, addend: 0x0, symName: __ZNKSt3__16vectorIN2sf6VertexENS_9allocatorIS2_EEE4dataB8ue170006Ev, symObjAddr: 0x2484, symBinAddr: 0x100005A68, symSize: 0x28 }
  - { offsetInCU: 0x18611, offset: 0x18611, size: 0x8, addend: 0x0, symName: __ZNKSt3__16vectorIN2sf6VertexENS_9allocatorIS2_EEE8capacityB8ue170006Ev, symObjAddr: 0x24AC, symBinAddr: 0x100005A90, symSize: 0x40 }
  - { offsetInCU: 0x18635, offset: 0x18635, size: 0x8, addend: 0x0, symName: __ZNKSt3__16vectorIN2sf6VertexENS_9allocatorIS2_EEE9__end_capB8ue170006Ev, symObjAddr: 0x2500, symBinAddr: 0x100005AE4, symSize: 0x28 }
  - { offsetInCU: 0x18659, offset: 0x18659, size: 0x8, addend: 0x0, symName: __ZNKSt3__117__compressed_pairIPN2sf6VertexENS_9allocatorIS2_EEE5firstB8ue170006Ev, symObjAddr: 0x2528, symBinAddr: 0x100005B0C, symSize: 0x24 }
  - { offsetInCU: 0x1867E, offset: 0x1867E, size: 0x8, addend: 0x0, symName: __ZNKSt3__122__compressed_pair_elemIPN2sf6VertexELi0ELb0EE5__getB8ue170006Ev, symObjAddr: 0x254C, symBinAddr: 0x100005B30, symSize: 0x14 }
  - { offsetInCU: 0x186BC, offset: 0x186BC, size: 0x8, addend: 0x0, symName: __ZNSt3__16vectorIN2sf6VertexENS_9allocatorIS2_EEE21_ConstructTransactionC1B8ue170006ERS5_m, symObjAddr: 0x2560, symBinAddr: 0x100005B44, symSize: 0x3C }
  - { offsetInCU: 0x18703, offset: 0x18703, size: 0x8, addend: 0x0, symName: __ZNSt3__16vectorIN2sf6VertexENS_9allocatorIS2_EEE21_ConstructTransactionD1B8ue170006Ev, symObjAddr: 0x261C, symBinAddr: 0x100005C00, symSize: 0x2C }
  - { offsetInCU: 0x1872C, offset: 0x1872C, size: 0x8, addend: 0x0, symName: __ZNSt3__16vectorIN2sf6VertexENS_9allocatorIS2_EEE21_ConstructTransactionC2B8ue170006ERS5_m, symObjAddr: 0x2648, symBinAddr: 0x100005C2C, symSize: 0x4C }
  - { offsetInCU: 0x18791, offset: 0x18791, size: 0x8, addend: 0x0, symName: __ZNSt3__14pairIPN2sf6VertexES3_EC1B8ue170006IS3_S3_LPv0EEEOT_OT0_, symObjAddr: 0x27C4, symBinAddr: 0x100005DA8, symSize: 0x3C }
  - { offsetInCU: 0x187EE, offset: 0x187EE, size: 0x8, addend: 0x0, symName: __ZNSt3__14pairIPN2sf6VertexES3_EC2B8ue170006IS3_S3_LPv0EEEOT_OT0_, symObjAddr: 0x2800, symBinAddr: 0x100005DE4, symSize: 0x34 }
  - { offsetInCU: 0x18854, offset: 0x18854, size: 0x8, addend: 0x0, symName: __ZNKSt3__114__copy_trivialclB8ue170006IN2sf6VertexES3_Li0EEENS_4pairIPT_PT0_EES6_S6_S8_, symObjAddr: 0x29B0, symBinAddr: 0x100005F94, symSize: 0x48 }
  - { offsetInCU: 0x188BB, offset: 0x188BB, size: 0x8, addend: 0x0, symName: __ZNSt3__14pairIPN2sf6VertexES3_EC1B8ue170006IRS3_S3_LPv0EEEOT_OT0_, symObjAddr: 0x2B4C, symBinAddr: 0x100006130, symSize: 0x3C }
  - { offsetInCU: 0x18918, offset: 0x18918, size: 0x8, addend: 0x0, symName: __ZNSt3__14pairIPN2sf6VertexES3_EC2B8ue170006IRS3_S3_LPv0EEEOT_OT0_, symObjAddr: 0x2B88, symBinAddr: 0x10000616C, symSize: 0x34 }
  - { offsetInCU: 0x18975, offset: 0x18975, size: 0x8, addend: 0x0, symName: __ZNSt3__118__unwrap_iter_implIPN2sf6VertexELb1EE8__unwrapB8ue170006ES3_, symObjAddr: 0x2BBC, symBinAddr: 0x1000061A0, symSize: 0x24 }
  - { offsetInCU: 0x18998, offset: 0x18998, size: 0x8, addend: 0x0, symName: __ZNSt3__118__unwrap_iter_implIPN2sf6VertexELb1EE8__rewrapB8ue170006ES3_S3_, symObjAddr: 0x2BE0, symBinAddr: 0x1000061C4, symSize: 0x58 }
  - { offsetInCU: 0x189C9, offset: 0x189C9, size: 0x8, addend: 0x0, symName: __ZNSt3__16vectorIN2sf6VertexENS_9allocatorIS2_EEE21_ConstructTransactionD2B8ue170006Ev, symObjAddr: 0x2C38, symBinAddr: 0x10000621C, symSize: 0x20 }
  - { offsetInCU: 0x189F2, offset: 0x189F2, size: 0x8, addend: 0x0, symName: __ZNSt3__128__exception_guard_exceptionsINS_6vectorIN2sf6VertexENS_9allocatorIS3_EEE16__destroy_vectorEED2B8ue170006Ev, symObjAddr: 0x2C58, symBinAddr: 0x10000623C, symSize: 0x50 }
  - { offsetInCU: 0x18A1A, offset: 0x18A1A, size: 0x8, addend: 0x0, symName: __ZNSt3__16vectorIN2sf6VertexENS_9allocatorIS2_EEE16__destroy_vectorclB8ue170006Ev, symObjAddr: 0x2CA8, symBinAddr: 0x10000628C, symSize: 0x90 }
  - { offsetInCU: 0x18A3E, offset: 0x18A3E, size: 0x8, addend: 0x0, symName: __ZNSt3__16vectorIN2sf6VertexENS_9allocatorIS2_EEE7__clearB8ue170006Ev, symObjAddr: 0x2D38, symBinAddr: 0x10000631C, symSize: 0x28 }
  - { offsetInCU: 0x18A62, offset: 0x18A62, size: 0x8, addend: 0x0, symName: __ZNKSt3__16vectorIN2sf6VertexENS_9allocatorIS2_EEE17__annotate_deleteB8ue170006Ev, symObjAddr: 0x2D60, symBinAddr: 0x100006344, symSize: 0xD4 }
  - { offsetInCU: 0x18A87, offset: 0x18A87, size: 0x8, addend: 0x0, symName: __ZNSt3__116allocator_traitsINS_9allocatorIN2sf6VertexEEEE10deallocateB8ue170006ERS4_PS3_m, symObjAddr: 0x2E34, symBinAddr: 0x100006418, symSize: 0x34 }
  - { offsetInCU: 0x18AC8, offset: 0x18AC8, size: 0x8, addend: 0x0, symName: __ZNSt3__16vectorIN2sf6VertexENS_9allocatorIS2_EEE22__base_destruct_at_endB8ue170006EPS2_, symObjAddr: 0x2E68, symBinAddr: 0x10000644C, symSize: 0x8C }
  - { offsetInCU: 0x18B0B, offset: 0x18B0B, size: 0x8, addend: 0x0, symName: __ZNSt3__116allocator_traitsINS_9allocatorIN2sf6VertexEEEE7destroyB8ue170006IS3_vEEvRS4_PT_, symObjAddr: 0x2EF4, symBinAddr: 0x1000064D8, symSize: 0x2C }
  - { offsetInCU: 0x18B48, offset: 0x18B48, size: 0x8, addend: 0x0, symName: __ZNSt3__19allocatorIN2sf6VertexEE7destroyB8ue170006EPS2_, symObjAddr: 0x2F20, symBinAddr: 0x100006504, symSize: 0x14 }
  - { offsetInCU: 0x18B7A, offset: 0x18B7A, size: 0x8, addend: 0x0, symName: __ZNSt3__19allocatorIN2sf6VertexEE10deallocateB8ue170006EPS2_m, symObjAddr: 0x2F34, symBinAddr: 0x100006518, symSize: 0x44 }
  - { offsetInCU: 0x18BBB, offset: 0x18BBB, size: 0x8, addend: 0x0, symName: __ZN2sf11VertexArrayD2Ev, symObjAddr: 0x2F78, symBinAddr: 0x10000655C, symSize: 0x48 }
  - { offsetInCU: 0x18BE6, offset: 0x18BE6, size: 0x8, addend: 0x0, symName: __ZNSt3__16vectorIN2sf6VertexENS_9allocatorIS2_EEED1B8ue170006Ev, symObjAddr: 0x2FC0, symBinAddr: 0x1000065A4, symSize: 0x2C }
  - { offsetInCU: 0x18C0F, offset: 0x18C0F, size: 0x8, addend: 0x0, symName: __ZNSt3__16vectorIN2sf6VertexENS_9allocatorIS2_EEED2B8ue170006Ev, symObjAddr: 0x2FEC, symBinAddr: 0x1000065D0, symSize: 0x40 }
  - { offsetInCU: 0x18C38, offset: 0x18C38, size: 0x8, addend: 0x0, symName: __ZNSt3__16vectorI12EllipseShapeNS_9allocatorIS1_EEE21_ConstructTransactionD2B8ue170006Ev, symObjAddr: 0x302C, symBinAddr: 0x100006610, symSize: 0x20 }
  - { offsetInCU: 0x18C61, offset: 0x18C61, size: 0x8, addend: 0x0, symName: __ZNKSt3__16vectorI12EllipseShapeNS_9allocatorIS1_EEE11__recommendB8ue170006Em, symObjAddr: 0x304C, symBinAddr: 0x100006630, symSize: 0xB4 }
  - { offsetInCU: 0x18CB4, offset: 0x18CB4, size: 0x8, addend: 0x0, symName: __ZNSt3__114__split_bufferI12EllipseShapeRNS_9allocatorIS1_EEEC1EmmS4_, symObjAddr: 0x3100, symBinAddr: 0x1000066E4, symSize: 0x44 }
  - { offsetInCU: 0x18D09, offset: 0x18D09, size: 0x8, addend: 0x0, symName: __ZNSt3__114__split_bufferI12EllipseShapeRNS_9allocatorIS1_EEED1Ev, symObjAddr: 0x3254, symBinAddr: 0x100006838, symSize: 0x2C }
  - { offsetInCU: 0x18D34, offset: 0x18D34, size: 0x8, addend: 0x0, symName: __ZNKSt3__16vectorI12EllipseShapeNS_9allocatorIS1_EEE8max_sizeEv, symObjAddr: 0x3280, symBinAddr: 0x100006864, symSize: 0x60 }
  - { offsetInCU: 0x18D59, offset: 0x18D59, size: 0x8, addend: 0x0, symName: __ZNKSt3__16vectorI12EllipseShapeNS_9allocatorIS1_EEE20__throw_length_errorB8ue170006Ev, symObjAddr: 0x32E0, symBinAddr: 0x1000068C4, symSize: 0x1C }
  - { offsetInCU: 0x18D88, offset: 0x18D88, size: 0x8, addend: 0x0, symName: __ZNSt3__116allocator_traitsINS_9allocatorI12EllipseShapeEEE8max_sizeB8ue170006IS3_vEEmRKS3_, symObjAddr: 0x3328, symBinAddr: 0x10000690C, symSize: 0x24 }
  - { offsetInCU: 0x18DB5, offset: 0x18DB5, size: 0x8, addend: 0x0, symName: __ZNKSt3__16vectorI12EllipseShapeNS_9allocatorIS1_EEE7__allocB8ue170006Ev, symObjAddr: 0x334C, symBinAddr: 0x100006930, symSize: 0x28 }
  - { offsetInCU: 0x18DDA, offset: 0x18DDA, size: 0x8, addend: 0x0, symName: __ZNKSt3__19allocatorI12EllipseShapeE8max_sizeB8ue170006Ev, symObjAddr: 0x3374, symBinAddr: 0x100006958, symSize: 0x20 }
  - { offsetInCU: 0x18DFE, offset: 0x18DFE, size: 0x8, addend: 0x0, symName: __ZNKSt3__117__compressed_pairIP12EllipseShapeNS_9allocatorIS1_EEE6secondB8ue170006Ev, symObjAddr: 0x3394, symBinAddr: 0x100006978, symSize: 0x24 }
  - { offsetInCU: 0x18E23, offset: 0x18E23, size: 0x8, addend: 0x0, symName: __ZNKSt3__122__compressed_pair_elemINS_9allocatorI12EllipseShapeEELi1ELb1EE5__getB8ue170006Ev, symObjAddr: 0x33B8, symBinAddr: 0x10000699C, symSize: 0x14 }
  - { offsetInCU: 0x18E48, offset: 0x18E48, size: 0x8, addend: 0x0, symName: __ZNSt3__114__split_bufferI12EllipseShapeRNS_9allocatorIS1_EEEC2EmmS4_, symObjAddr: 0x3420, symBinAddr: 0x100006A04, symSize: 0xE0 }
  - { offsetInCU: 0x18EBB, offset: 0x18EBB, size: 0x8, addend: 0x0, symName: __ZNSt3__117__compressed_pairIP12EllipseShapeRNS_9allocatorIS1_EEEC1B8ue170006IDnS5_EEOT_OT0_, symObjAddr: 0x3500, symBinAddr: 0x100006AE4, symSize: 0x3C }
  - { offsetInCU: 0x18F11, offset: 0x18F11, size: 0x8, addend: 0x0, symName: __ZNSt3__114__split_bufferI12EllipseShapeRNS_9allocatorIS1_EEE7__allocB8ue170006Ev, symObjAddr: 0x357C, symBinAddr: 0x100006B60, symSize: 0x28 }
  - { offsetInCU: 0x18F35, offset: 0x18F35, size: 0x8, addend: 0x0, symName: __ZNSt3__114__split_bufferI12EllipseShapeRNS_9allocatorIS1_EEE9__end_capB8ue170006Ev, symObjAddr: 0x35A4, symBinAddr: 0x100006B88, symSize: 0x28 }
  - { offsetInCU: 0x18F5A, offset: 0x18F5A, size: 0x8, addend: 0x0, symName: __ZNSt3__117__compressed_pairIP12EllipseShapeRNS_9allocatorIS1_EEEC2B8ue170006IDnS5_EEOT_OT0_, symObjAddr: 0x35CC, symBinAddr: 0x100006BB0, symSize: 0x48 }
  - { offsetInCU: 0x18FB1, offset: 0x18FB1, size: 0x8, addend: 0x0, symName: __ZNSt3__122__compressed_pair_elemIRNS_9allocatorI12EllipseShapeEELi1ELb0EEC2B8ue170006IS4_vEEOT_, symObjAddr: 0x3614, symBinAddr: 0x100006BF8, symSize: 0x20 }
  - { offsetInCU: 0x18FF1, offset: 0x18FF1, size: 0x8, addend: 0x0, symName: __ZNSt3__19allocatorI12EllipseShapeE8allocateB8ue170006Em, symObjAddr: 0x3634, symBinAddr: 0x100006C18, symSize: 0x5C }
  - { offsetInCU: 0x19023, offset: 0x19023, size: 0x8, addend: 0x0, symName: __ZNSt3__117__compressed_pairIP12EllipseShapeRNS_9allocatorIS1_EEE6secondB8ue170006Ev, symObjAddr: 0x3690, symBinAddr: 0x100006C74, symSize: 0x28 }
  - { offsetInCU: 0x19048, offset: 0x19048, size: 0x8, addend: 0x0, symName: __ZNSt3__122__compressed_pair_elemIRNS_9allocatorI12EllipseShapeEELi1ELb0EE5__getB8ue170006Ev, symObjAddr: 0x36B8, symBinAddr: 0x100006C9C, symSize: 0x18 }
  - { offsetInCU: 0x1906C, offset: 0x1906C, size: 0x8, addend: 0x0, symName: __ZNSt3__117__compressed_pairIP12EllipseShapeRNS_9allocatorIS1_EEE5firstB8ue170006Ev, symObjAddr: 0x36D0, symBinAddr: 0x100006CB4, symSize: 0x24 }
  - { offsetInCU: 0x19091, offset: 0x19091, size: 0x8, addend: 0x0, symName: __ZNSt3__116reverse_iteratorIP12EllipseShapeEC1B8ue170006ES2_, symObjAddr: 0x3820, symBinAddr: 0x100006E04, symSize: 0x34 }
  - { offsetInCU: 0x190C8, offset: 0x190C8, size: 0x8, addend: 0x0, symName: __ZNKSt3__116reverse_iteratorIP12EllipseShapeE4baseB8ue170006Ev, symObjAddr: 0x3854, symBinAddr: 0x100006E38, symSize: 0x18 }
  - { offsetInCU: 0x190EC, offset: 0x190EC, size: 0x8, addend: 0x0, symName: __ZNKSt3__16vectorI12EllipseShapeNS_9allocatorIS1_EEE14__annotate_newB8ue170006Em, symObjAddr: 0x38A8, symBinAddr: 0x100006E8C, symSize: 0xC8 }
  - { offsetInCU: 0x19120, offset: 0x19120, size: 0x8, addend: 0x0, symName: __ZNSt3__129_AllocatorDestroyRangeReverseINS_9allocatorI12EllipseShapeEENS_16reverse_iteratorIPS2_EEEC1B8ue170006ERS3_RS6_S9_, symObjAddr: 0x39BC, symBinAddr: 0x100006FA0, symSize: 0x44 }
  - { offsetInCU: 0x19176, offset: 0x19176, size: 0x8, addend: 0x0, symName: __ZNKSt3__116reverse_iteratorIP12EllipseShapeEdeB8ue170006Ev, symObjAddr: 0x3A6C, symBinAddr: 0x100007050, symSize: 0x28 }
  - { offsetInCU: 0x191A9, offset: 0x191A9, size: 0x8, addend: 0x0, symName: __ZNSt3__116reverse_iteratorIP12EllipseShapeEppB8ue170006Ev, symObjAddr: 0x3A94, symBinAddr: 0x100007078, symSize: 0x20 }
  - { offsetInCU: 0x191CE, offset: 0x191CE, size: 0x8, addend: 0x0, symName: __ZNSt3__128__exception_guard_exceptionsINS_29_AllocatorDestroyRangeReverseINS_9allocatorI12EllipseShapeEENS_16reverse_iteratorIPS3_EEEEE10__completeB8ue170006Ev, symObjAddr: 0x3AB4, symBinAddr: 0x100007098, symSize: 0x1C }
  - { offsetInCU: 0x191F3, offset: 0x191F3, size: 0x8, addend: 0x0, symName: __ZNSt3__128__exception_guard_exceptionsINS_29_AllocatorDestroyRangeReverseINS_9allocatorI12EllipseShapeEENS_16reverse_iteratorIPS3_EEEEED1B8ue170006Ev, symObjAddr: 0x3AD0, symBinAddr: 0x1000070B4, symSize: 0x2C }
  - { offsetInCU: 0x1921C, offset: 0x1921C, size: 0x8, addend: 0x0, symName: __ZNSt3__128__exception_guard_exceptionsINS_29_AllocatorDestroyRangeReverseINS_9allocatorI12EllipseShapeEENS_16reverse_iteratorIPS3_EEEEEC1B8ue170006ES8_, symObjAddr: 0x3AFC, symBinAddr: 0x1000070E0, symSize: 0x34 }
  - { offsetInCU: 0x19254, offset: 0x19254, size: 0x8, addend: 0x0, symName: __ZNSt3__128__exception_guard_exceptionsINS_29_AllocatorDestroyRangeReverseINS_9allocatorI12EllipseShapeEENS_16reverse_iteratorIPS3_EEEEEC2B8ue170006ES8_, symObjAddr: 0x3B30, symBinAddr: 0x100007114, symSize: 0x30 }
  - { offsetInCU: 0x1928C, offset: 0x1928C, size: 0x8, addend: 0x0, symName: __ZNSt3__129_AllocatorDestroyRangeReverseINS_9allocatorI12EllipseShapeEENS_16reverse_iteratorIPS2_EEEC2B8ue170006ERS3_RS6_S9_, symObjAddr: 0x3B60, symBinAddr: 0x100007144, symSize: 0x38 }
  - { offsetInCU: 0x192E7, offset: 0x192E7, size: 0x8, addend: 0x0, symName: __ZNSt3__119__to_address_helperINS_16reverse_iteratorIP12EllipseShapeEEvE6__callB8ue170006ERKS4_, symObjAddr: 0x3B98, symBinAddr: 0x10000717C, symSize: 0x38 }
  - { offsetInCU: 0x19309, offset: 0x19309, size: 0x8, addend: 0x0, symName: __ZNKSt3__116reverse_iteratorIP12EllipseShapeEptB8ue170006Ev, symObjAddr: 0x3BD0, symBinAddr: 0x1000071B4, symSize: 0x24 }
  - { offsetInCU: 0x1932E, offset: 0x1932E, size: 0x8, addend: 0x0, symName: __ZNSt3__128__exception_guard_exceptionsINS_29_AllocatorDestroyRangeReverseINS_9allocatorI12EllipseShapeEENS_16reverse_iteratorIPS3_EEEEED2B8ue170006Ev, symObjAddr: 0x3BF4, symBinAddr: 0x1000071D8, symSize: 0x50 }
  - { offsetInCU: 0x19356, offset: 0x19356, size: 0x8, addend: 0x0, symName: __ZNKSt3__129_AllocatorDestroyRangeReverseINS_9allocatorI12EllipseShapeEENS_16reverse_iteratorIPS2_EEEclB8ue170006Ev, symObjAddr: 0x3C44, symBinAddr: 0x100007228, symSize: 0xB4 }
  - { offsetInCU: 0x1937C, offset: 0x1937C, size: 0x8, addend: 0x0, symName: __ZNSt3__116reverse_iteratorINS0_IP12EllipseShapeEEEC1B8ue170006ES3_, symObjAddr: 0x3D68, symBinAddr: 0x10000734C, symSize: 0x3C }
  - { offsetInCU: 0x193B2, offset: 0x193B2, size: 0x8, addend: 0x0, symName: __ZNSt3__116reverse_iteratorINS0_IP12EllipseShapeEEEppB8ue170006Ev, symObjAddr: 0x3E28, symBinAddr: 0x10000740C, symSize: 0x30 }
  - { offsetInCU: 0x193D7, offset: 0x193D7, size: 0x8, addend: 0x0, symName: __ZNKSt3__116reverse_iteratorINS0_IP12EllipseShapeEEE4baseB8ue170006Ev, symObjAddr: 0x3E58, symBinAddr: 0x10000743C, symSize: 0x24 }
  - { offsetInCU: 0x19401, offset: 0x19401, size: 0x8, addend: 0x0, symName: __ZNSt3__119__to_address_helperINS_16reverse_iteratorINS1_IP12EllipseShapeEEEEvE6__callB8ue170006ERKS5_, symObjAddr: 0x3E7C, symBinAddr: 0x100007460, symSize: 0x38 }
  - { offsetInCU: 0x19423, offset: 0x19423, size: 0x8, addend: 0x0, symName: __ZNKSt3__116reverse_iteratorINS0_IP12EllipseShapeEEEptB8ue170006Ev, symObjAddr: 0x3EB4, symBinAddr: 0x100007498, symSize: 0x24 }
  - { offsetInCU: 0x19447, offset: 0x19447, size: 0x8, addend: 0x0, symName: __ZNKSt3__116reverse_iteratorINS0_IP12EllipseShapeEEEdeB8ue170006Ev, symObjAddr: 0x3ED8, symBinAddr: 0x1000074BC, symSize: 0x34 }
  - { offsetInCU: 0x1947A, offset: 0x1947A, size: 0x8, addend: 0x0, symName: __ZNSt3__116reverse_iteratorIP12EllipseShapeEmmB8ue170006Ev, symObjAddr: 0x3F0C, symBinAddr: 0x1000074F0, symSize: 0x20 }
  - { offsetInCU: 0x1949F, offset: 0x1949F, size: 0x8, addend: 0x0, symName: __ZNSt3__116reverse_iteratorINS0_IP12EllipseShapeEEEC2B8ue170006ES3_, symObjAddr: 0x3F2C, symBinAddr: 0x100007510, symSize: 0x2C }
  - { offsetInCU: 0x194D6, offset: 0x194D6, size: 0x8, addend: 0x0, symName: __ZNSt3__116reverse_iteratorIP12EllipseShapeEC2B8ue170006ES2_, symObjAddr: 0x3F58, symBinAddr: 0x10000753C, symSize: 0x28 }
  - { offsetInCU: 0x1950D, offset: 0x1950D, size: 0x8, addend: 0x0, symName: __ZNSt3__114__split_bufferI12EllipseShapeRNS_9allocatorIS1_EEED2Ev, symObjAddr: 0x3F80, symBinAddr: 0x100007564, symSize: 0x8C }
  - { offsetInCU: 0x19537, offset: 0x19537, size: 0x8, addend: 0x0, symName: __ZNSt3__114__split_bufferI12EllipseShapeRNS_9allocatorIS1_EEE5clearB8ue170006Ev, symObjAddr: 0x400C, symBinAddr: 0x1000075F0, symSize: 0x28 }
  - { offsetInCU: 0x1955B, offset: 0x1955B, size: 0x8, addend: 0x0, symName: __ZNKSt3__114__split_bufferI12EllipseShapeRNS_9allocatorIS1_EEE8capacityB8ue170006Ev, symObjAddr: 0x4034, symBinAddr: 0x100007618, symSize: 0x40 }
  - { offsetInCU: 0x1957F, offset: 0x1957F, size: 0x8, addend: 0x0, symName: __ZNSt3__114__split_bufferI12EllipseShapeRNS_9allocatorIS1_EEE17__destruct_at_endB8ue170006EPS1_, symObjAddr: 0x4074, symBinAddr: 0x100007658, symSize: 0x2C }
  - { offsetInCU: 0x195B2, offset: 0x195B2, size: 0x8, addend: 0x0, symName: __ZNSt3__114__split_bufferI12EllipseShapeRNS_9allocatorIS1_EEE17__destruct_at_endB8ue170006EPS1_NS_17integral_constantIbLb0EEE, symObjAddr: 0x40A0, symBinAddr: 0x100007684, symSize: 0x80 }
  - { offsetInCU: 0x195F0, offset: 0x195F0, size: 0x8, addend: 0x0, symName: __ZNKSt3__114__split_bufferI12EllipseShapeRNS_9allocatorIS1_EEE9__end_capB8ue170006Ev, symObjAddr: 0x4120, symBinAddr: 0x100007704, symSize: 0x28 }
  - { offsetInCU: 0x19614, offset: 0x19614, size: 0x8, addend: 0x0, symName: __ZNKSt3__117__compressed_pairIP12EllipseShapeRNS_9allocatorIS1_EEE5firstB8ue170006Ev, symObjAddr: 0x4148, symBinAddr: 0x10000772C, symSize: 0x24 }
  - { offsetInCU: 0x19638, offset: 0x19638, size: 0x8, addend: 0x0, symName: __ZNSt3__16vectorI12EllipseShapeNS_9allocatorIS1_EEE11__make_iterB8ue170006EPS1_, symObjAddr: 0x416C, symBinAddr: 0x100007750, symSize: 0x30 }
  - { offsetInCU: 0x1966C, offset: 0x1966C, size: 0x8, addend: 0x0, symName: __ZNSt3__111__wrap_iterIP12EllipseShapeEC1B8ue170006ES2_, symObjAddr: 0x419C, symBinAddr: 0x100007780, symSize: 0x34 }
  - { offsetInCU: 0x196A3, offset: 0x196A3, size: 0x8, addend: 0x0, symName: __ZNSt3__111__wrap_iterIP12EllipseShapeEC2B8ue170006ES2_, symObjAddr: 0x41D0, symBinAddr: 0x1000077B4, symSize: 0x20 }
...
